BL51 BANKED LINKER/LOCATER V6.22                                                        05/17/2016  11:14:00  PAGE 1


BL51 BANKED LINKER/LOCATER V6.22, INVOKED BY:
D:\KEIL_V5\C51\BIN\BL51.EXE GF2488-01F1-E1-RST.obj, .\NewLib9.LIB TO citrans550f RAMSIZE (256)


MEMORY MODEL: LARGE


INPUT MODULES INCLUDED:
  GF2488-01F1-E1-RST.obj (GF2488_01F1_E1_RST)
  .\NewLib9.LIB (TIMER)
  .\NewLib9.LIB (COMM)
  .\NewLib9.LIB (DEBUG)
  .\NewLib9.LIB (HDLC)
  .\NewLib9.LIB (?C_STARTUP)
  D:\KEIL_V5\C51\LIB\C51L.LIB (?C_INIT)
  D:\KEIL_V5\C51\LIB\C51L.LIB (?C?CLDPTR)
  D:\KEIL_V5\C51\LIB\C51L.LIB (?C?CLDOPTR)
  D:\KEIL_V5\C51\LIB\C51L.LIB (?C?CSTPTR)
  D:\KEIL_V5\C51\LIB\C51L.LIB (?C?CSTOPTR)
  D:\KEIL_V5\C51\LIB\C51L.LIB (?C?IMUL)
  D:\KEIL_V5\C51\LIB\C51L.LIB (?C?UIDIV)
  D:\KEIL_V5\C51\LIB\C51L.LIB (?C?IILDX)
  D:\KEIL_V5\C51\LIB\C51L.LIB (?C?ILDIX)
  D:\KEIL_V5\C51\LIB\C51L.LIB (?C?ILDOPTR)
  D:\KEIL_V5\C51\LIB\C51L.LIB (?C?ISTPTR)
  D:\KEIL_V5\C51\LIB\C51L.LIB (?C?ISTOPTR)
  D:\KEIL_V5\C51\LIB\C51L.LIB (?C?ULCMP)
  D:\KEIL_V5\C51\LIB\C51L.LIB (?C?LSHL)
  D:\KEIL_V5\C51\LIB\C51L.LIB (?C?LLDOPTR)
  D:\KEIL_V5\C51\LIB\C51L.LIB (?C?LSTXDATA)
  D:\KEIL_V5\C51\LIB\C51L.LIB (?C?LSTKXDATA)
  D:\KEIL_V5\C51\LIB\C51L.LIB (?C?OFFX256)
  D:\KEIL_V5\C51\LIB\C51L.LIB (?C?OFFXADD)
  D:\KEIL_V5\C51\LIB\C51L.LIB (?C?CCASE)
  D:\KEIL_V5\C51\LIB\C51L.LIB (?C?ICALL)
  D:\KEIL_V5\C51\LIB\C51L.LIB (PRINTF)
  D:\KEIL_V5\C51\LIB\C51L.LIB (TOINT)
  D:\KEIL_V5\C51\LIB\C51L.LIB (ISXDIGIT)
  D:\KEIL_V5\C51\LIB\C51L.LIB (TOUPPER)
  D:\KEIL_V5\C51\LIB\C51L.LIB (STRNCMP)
  D:\KEIL_V5\C51\LIB\C51L.LIB (STRNCPY)
  D:\KEIL_V5\C51\LIB\C51L.LIB (STRLEN)
  D:\KEIL_V5\C51\LIB\C51L.LIB (?C?MEMSET)
  D:\KEIL_V5\C51\LIB\C51L.LIB (?C?MEMCMPAMD)
  D:\KEIL_V5\C51\LIB\C51L.LIB (?C?COPYAMD)
  D:\KEIL_V5\C51\LIB\C51L.LIB (?C?STRCMPAMD)
  D:\KEIL_V5\C51\LIB\C51L.LIB (?C?LLDIDATA)
  D:\KEIL_V5\C51\LIB\C51L.LIB (?C?LLDXDATA)
  D:\KEIL_V5\C51\LIB\C51L.LIB (?C?LLDPDATA)
  D:\KEIL_V5\C51\LIB\C51L.LIB (?C?LLDCODE)
  D:\KEIL_V5\C51\LIB\C51L.LIB (?C?PLDIXDATA)
  D:\KEIL_V5\C51\LIB\C51L.LIB (?C?PSTXDATA)
  D:\KEIL_V5\C51\LIB\C51L.LIB (PUTCHAR)


LINK MAP OF MODULE:  citrans550f (GF2488_01F1_E1_RST)


BL51 BANKED LINKER/LOCATER V6.22                                                      05/17/2016  11:14:00  PAGE 2


            TYPE    BASE      LENGTH    RELOCATION   SEGMENT NAME
            -----------------------------------------------------

            * * * * * * *   D A T A   M E M O R Y   * * * * * * *
            REG     0000H     0008H     ABSOLUTE     "REG BANK 0"
            REG     0008H     0008H     ABSOLUTE     "REG BANK 1"
            REG     0010H     0008H     ABSOLUTE     "REG BANK 2"
            DATA    0018H     0007H     UNIT         _DATA_GROUP_
            DATA    001FH     0001H     UNIT         ?DT?DEBUG
            DATA    0020H     0001H     BIT_ADDR     ?BA?GF2488_01F1_E1_RST
            DATA    0021H     0001H     BIT_ADDR     ?BA?COMM
            BIT     0022H.0   0001H.1   UNIT         _BIT_GROUP_
            BIT     0023H.1   0000H.6   UNIT         ?BI?COMM
            BIT     0023H.7   0000H.1   UNIT         ?BI?DEBUG
            IDATA   0024H     0001H     UNIT         ?STACK

            * * * * * * *  X D A T A   M E M O R Y  * * * * * * *
            XDATA   0000H     2000H     ABSOLUTE     
            XDATA   2000H     56E1H     UNIT         ?XD?GF2488_01F1_E1_RST
            XDATA   76E1H     0437H     UNIT         ?XD?COMM
            XDATA   7B18H     0060H     UNIT         _XDATA_GROUP_
            XDATA   7B78H     002AH     UNIT         ?XD?DEBUG
            XDATA   7BA2H     0010H     UNIT         ?XD?TIMER
            XDATA   7BB2H     000FH     UNIT         ?XD?HDLC

            * * * * * * *   C O D E   M E M O R Y   * * * * * * *
            CODE    0000H     0003H     ABSOLUTE     
            CODE    0003H     0003H     ABSOLUTE     
            CODE    0006H     0009H     UNIT         ?C_INITSEG
                    000FH     0004H                  *** GAP ***
            CODE    0013H     0003H     ABSOLUTE     
            CODE    0016H     0007H     UNIT         ?PR?TIMER
                    001DH     0006H                  *** GAP ***
            CODE    0023H     0003H     ABSOLUTE     
                    0026H     0005H                  *** GAP ***
            CODE    002BH     0003H     ABSOLUTE     
            CODE    002EH     001AH     UNIT         ?PR?CHECKTUXAB?GF2488_01F1_E1_RST
                    0048H     0003H                  *** GAP ***
            CODE    004BH     0003H     ABSOLUTE     
            CODE    004EH     0EDEH     UNIT         ?PR?GETDATA?GF2488_01F1_E1_RST
            CODE    0F2CH     0940H     UNIT         ?PR?PROCCMD?COMM
            CODE    186CH     092AH     UNIT         ?PR?DEBUG?DEBUG
            CODE    2196H     06C2H     UNIT         ?C?LIB_CODE
            CODE    2858H     0655H     UNIT         ?PR?_CALUAS?GF2488_01F1_E1_RST
            CODE    2EADH     0590H     UNIT         ?PR?INITIOSW1021?GF2488_01F1_E1_RST
            CODE    343DH     0590H     UNIT         ?PR?COMM
            CODE    39CDH     058BH     UNIT         ?PR?CONFSET?GF2488_01F1_E1_RST
            CODE    3F58H     0460H     UNIT         ?PR?_DOWNSOFT?COMM
            CODE    43B8H     03CCH     UNIT         ?PR?SELFCONF?GF2488_01F1_E1_RST
            CODE    4784H     0365H     UNIT         ?PR?PRINTF?PRINTF
            CODE    4AE9H     02B6H     UNIT         ?PR?USERHDLC?GF2488_01F1_E1_RST
            CODE    4D9FH     024BH     UNIT         ?CO?COMM
            CODE    4FEAH     0243H     UNIT         ?PR?PROCALMDATA?COMM
            CODE    522DH     022FH     UNIT         ?CO?DEBUG
            CODE    545CH     0214H     UNIT         ?PR?SOFTUPDATE?COMM
            CODE    5670H     0211H     UNIT         ?PR?HDLCOK?HDLC
            CODE    5881H     01DFH     UNIT         ?PR?PROCHISDATA?COMM
BL51 BANKED LINKER/LOCATER V6.22                                                      05/17/2016  11:14:00  PAGE 3


            CODE    5A60H     01CDH     UNIT         ?PR?_VERSHOW?COMM
            CODE    5C2DH     01B9H     UNIT         ?PR?UASQUARTER?GF2488_01F1_E1_RST
            CODE    5DE6H     0118H     UNIT         ?PR?SCC1TX?HDLC
            CODE    5EFEH     00FAH     UNIT         ?CO?GF2488_01F1_E1_RST
            CODE    5FF8H     00F9H     UNIT         ?PR?TIMERINTEP?TIMER
            CODE    60F1H     00F8H     UNIT         ?PR?DEBUG
            CODE    61E9H     00E6H     UNIT         ?PR?CHECKSW1021INIT?GF2488_01F1_E1_RST
            CODE    62CFH     00E2H     UNIT         ?PR?UASCLEAR?GF2488_01F1_E1_RST
            CODE    63B1H     00D2H     UNIT         ?PR?MAIN?GF2488_01F1_E1_RST
            CODE    6483H     00C5H     UNIT         ?PR?SCC2INTEP?DEBUG
            CODE    6548H     00BFH     UNIT         ?PR?USERFUNC?GF2488_01F1_E1_RST
            CODE    6607H     00BEH     UNIT         ?PR?_WRITEEXPECTJ2?GF2488_01F1_E1_RST
            CODE    66C5H     00BDH     UNIT         ?C_C51STARTUP
            CODE    6782H     00AFH     UNIT         ?PR?_WRITETXJ2?GF2488_01F1_E1_RST
            CODE    6831H     00AFH     UNIT         ?PR?_READBCTHEAD?COMM
            CODE    68E0H     00A7H     UNIT         ?PR?HDLC
            CODE    6987H     0088H     UNIT         ?PR?COPYFLASH?COMM
            CODE    6A0FH     0087H     UNIT         ?PR?_STRNCMP?STRNCMP
            CODE    6A96H     0083H     UNIT         ?PR?_READFPGAHEAD?COMM
            CODE    6B19H     006EH     UNIT         ?PR?_PROGBAKFLASH?COMM
            CODE    6B87H     006BH     UNIT         ?PR?RAMTEST?COMM
            CODE    6BF2H     0068H     UNIT         ?PR?_STRNCPY?STRNCPY
            CODE    6C5AH     0066H     UNIT         ?PR?COMMVARINIT?COMM
            CODE    6CC0H     0065H     UNIT         ?PR?_PROGRAM_ONE_BYTE?COMM
            CODE    6D25H     005CH     UNIT         ?PR?_PROGRAMAPROM?COMM
            CODE    6D81H     005CH     UNIT         ?PR?SCC1INIT?HDLC
            CODE    6DDDH     005BH     UNIT         ?PR?_CHECK_SST_39VF?COMM
            CODE    6E38H     0056H     UNIT         ?PR?_MEMCRC?COMM
            CODE    6E8EH     0050H     UNIT         ?PR?_CRCCCITT?COMM
            CODE    6EDEH     0044H     UNIT         ?PR?SCC2INIT?DEBUG
            CODE    6F22H     003DH     UNIT         ?PR?JUMPTOAUX?COMM
            CODE    6F5FH     003AH     UNIT         ?PR?ISPINIT?COMM
            CODE    6F99H     0039H     UNIT         ?PR?TIMERINIT?TIMER
            CODE    6FD2H     0038H     UNIT         ?PR?_ERASEFLASH?COMM
            CODE    700AH     0035H     UNIT         ?PR?HDLCERR?HDLC
            CODE    703FH     002AH     UNIT         ?PR?BOOTINIT?COMM
            CODE    7069H     0027H     UNIT         ?PR?TOINT?TOINT
            CODE    7090H     0027H     UNIT         ?PR?PUTCHAR?PUTCHAR
            CODE    70B7H     0026H     UNIT         ?PR?_ISXDIGIT?ISXDIGIT
            CODE    70DDH     0024H     UNIT         ?PR?_DELAY?TIMER
            CODE    7101H     0020H     UNIT         ?PR?_ERASEAPROM?COMM
            CODE    7121H     0017H     UNIT         ?PR?RESET?COMM
            CODE    7138H     0015H     UNIT         ?PR?_STRLEN?STRLEN
            CODE    714DH     0011H     UNIT         ?PR?_TOUPPER?TOUPPER
            CODE    715EH     0010H     UNIT         ?PR?TXDATA?DEBUG
            CODE    716EH     0010H     UNIT         ?PR?SCC1HARDINIT?HDLC



OVERLAY MAP OF MODULE:   citrans550f (GF2488_01F1_E1_RST)


SEGMENT                                           BIT_GROUP          DATA_GROUP          XDATA_GROUP
  +--> CALLED SEGMENT                          START    LENGTH     START    LENGTH     START    LENGTH
------------------------------------------------------------------------------------------------------
?PR?TIMERINTEP?TIMER                           -----    -----      -----    -----      -----    -----
  +--> ?PR?TIMER
BL51 BANKED LINKER/LOCATER V6.22                                                      05/17/2016  11:14:00  PAGE 4


  +--> ?PR?SCC1HARDINIT?HDLC
  +--> ?PR?USERFUNC?GF2488_01F1_E1_RST

?PR?USERFUNC?GF2488_01F1_E1_RST                -----    -----      -----    -----      7B18H    0002H
  +--> ?CO?GF2488_01F1_E1_RST

*** NEW ROOT ***************************************************

?PR?SCC2INTEP?DEBUG                            -----    -----      -----    -----      -----    -----
  +--> ?PR?_TOUPPER?TOUPPER
  +--> ?PR?DEBUG

?PR?DEBUG                                      -----    -----      -----    -----      -----    -----
  +--> ?CO?DEBUG

*** NEW ROOT ***************************************************

?PR?HDLCOK?HDLC                                -----    -----      -----    -----      -----    -----
  +--> ?PR?HDLC
  +--> ?PR?PROCCMD?COMM
  +--> ?PR?SCC1TX?HDLC

?PR?PROCCMD?COMM                               -----    -----      -----    -----      7B1AH    000CH
  +--> ?PR?COMM
  +--> ?CO?COMM
  +--> ?PR?_STRLEN?STRLEN
  +--> ?CO?GF2488_01F1_E1_RST
  +--> ?PR?_READBCTHEAD?COMM
  +--> ?PR?_READFPGAHEAD?COMM
  +--> ?PR?_DOWNSOFT?COMM
  +--> ?PR?USERHDLC?GF2488_01F1_E1_RST
  +--> ?PR?_VERSHOW?COMM

?PR?COMM                                       -----    -----      -----    -----      -----    -----
  +--> ?CO?GF2488_01F1_E1_RST
  +--> ?CO?COMM

?PR?_READBCTHEAD?COMM                          -----    -----      -----    -----      7B2BH    0003H
  +--> ?PR?COMM
  +--> ?CO?GF2488_01F1_E1_RST
  +--> ?PR?_STRNCPY?STRNCPY

?PR?_STRNCPY?STRNCPY                           -----    -----      -----    -----      7B2EH    000AH

?PR?_READFPGAHEAD?COMM                         -----    -----      -----    -----      7B2BH    0006H
  +--> ?PR?COMM

?PR?_DOWNSOFT?COMM                             -----    -----      -----    -----      7B26H    0005H
  +--> ?PR?COMM
  +--> ?PR?_READBCTHEAD?COMM
  +--> ?PR?_READFPGAHEAD?COMM
  +--> ?PR?_CRCCCITT?COMM

?PR?_CRCCCITT?COMM                             -----    -----      -----    -----      7B2BH    0007H
  +--> ?PR?COMM

?PR?USERHDLC?GF2488_01F1_E1_RST                -----    -----      -----    -----      7B26H    0006H
BL51 BANKED LINKER/LOCATER V6.22                                                      05/17/2016  11:14:00  PAGE 5


  +--> ?CO?GF2488_01F1_E1_RST

?PR?_VERSHOW?COMM                              -----    -----      -----    -----      7B26H    0008H
  +--> ?PR?COMM
  +--> ?CO?COMM
  +--> ?PR?_STRLEN?STRLEN

?PR?SCC1TX?HDLC                                -----    -----      0018H    0002H      7B1AH    0002H
  +--> ?PR?HDLC

*** NEW ROOT ***************************************************

?PR?HDLCERR?HDLC                               -----    -----      -----    -----      -----    -----
  +--> ?PR?HDLC

*** NEW ROOT ***************************************************

?C_C51STARTUP                                  -----    -----      -----    -----      -----    -----
  +--> ?PR?BOOTINIT?COMM
  +--> ?PR?MAIN?GF2488_01F1_E1_RST
  +--> ?C_INITSEG

?PR?BOOTINIT?COMM                              -----    -----      -----    -----      -----    -----
  +--> ?PR?COMM
  +--> ?PR?RAMTEST?COMM
  +--> ?PR?COMMVARINIT?COMM
  +--> ?PR?ISPINIT?COMM
  +--> ?PR?SCC2INIT?DEBUG
  +--> ?PR?SCC1INIT?HDLC
  +--> ?PR?TIMERINIT?TIMER

?PR?RAMTEST?COMM                               -----    -----      001AH    0002H      -----    -----
  +--> ?PR?COMM
  +--> ?PR?RESET?COMM

?PR?COMMVARINIT?COMM                           -----    -----      -----    -----      -----    -----
  +--> ?PR?COMM

?PR?SCC2INIT?DEBUG                             -----    -----      -----    -----      -----    -----
  +--> ?PR?DEBUG

?PR?MAIN?GF2488_01F1_E1_RST                    -----    -----      -----    -----      7B38H    0002H
  +--> ?PR?SELFCONF?GF2488_01F1_E1_RST
  +--> ?PR?CHECKSW1021INIT?GF2488_01F1_E1_RST
  +--> ?PR?INITIOSW1021?GF2488_01F1_E1_RST
  +--> ?PR?CONFSET?GF2488_01F1_E1_RST
  +--> ?PR?GETDATA?GF2488_01F1_E1_RST
  +--> ?PR?PROCALMDATA?COMM
  +--> ?PR?UASQUARTER?GF2488_01F1_E1_RST
  +--> ?PR?PROCHISDATA?COMM
  +--> ?PR?DEBUG?DEBUG

?PR?SELFCONF?GF2488_01F1_E1_RST                -----    -----      -----    -----      7B3AH    0016H
  +--> ?CO?GF2488_01F1_E1_RST
  +--> ?PR?PRINTF?PRINTF

?PR?PRINTF?PRINTF                              0022H.0  0001H.1    001AH    0005H      7B50H    0028H
BL51 BANKED LINKER/LOCATER V6.22                                                      05/17/2016  11:14:00  PAGE 6


  +--> ?PR?PUTCHAR?PUTCHAR

?PR?CHECKSW1021INIT?GF2488_01F1_E1_RST         -----    -----      -----    -----      7B3AH    0004H
  +--> ?CO?GF2488_01F1_E1_RST

?PR?INITIOSW1021?GF2488_01F1_E1_RST            -----    -----      -----    -----      7B3AH    0006H
  +--> ?PR?_DELAY?TIMER
  +--> ?CO?GF2488_01F1_E1_RST
  +--> ?PR?_WRITETXJ2?GF2488_01F1_E1_RST
  +--> ?PR?_WRITEEXPECTJ2?GF2488_01F1_E1_RST

?PR?_DELAY?TIMER                               -----    -----      -----    -----      -----    -----
  +--> ?PR?TIMER

?PR?_WRITETXJ2?GF2488_01F1_E1_RST              -----    -----      -----    -----      7B44H    0009H

?PR?_WRITEEXPECTJ2?GF2488_01F1_E1_RST          -----    -----      -----    -----      7B44H    0009H

?PR?CONFSET?GF2488_01F1_E1_RST                 -----    -----      -----    -----      7B3EH    0006H
  +--> ?CO?GF2488_01F1_E1_RST
  +--> ?PR?_DELAY?TIMER
  +--> ?PR?_WRITETXJ2?GF2488_01F1_E1_RST
  +--> ?PR?_WRITEEXPECTJ2?GF2488_01F1_E1_RST

?PR?GETDATA?GF2488_01F1_E1_RST                 -----    -----      -----    -----      7B3AH    0016H
  +--> ?CO?GF2488_01F1_E1_RST
  +--> ?PR?_DELAY?TIMER
  +--> ?PR?UASCLEAR?GF2488_01F1_E1_RST
  +--> ?PR?_CALUAS?GF2488_01F1_E1_RST

?PR?_CALUAS?GF2488_01F1_E1_RST                 -----    -----      -----    -----      7B50H    0004H

?PR?PROCALMDATA?COMM                           -----    -----      -----    -----      7B3AH    0004H
  +--> ?PR?RESET?COMM
  +--> ?CO?GF2488_01F1_E1_RST
  +--> ?PR?_MEMCRC?COMM
  +--> ?PR?COMM
  +--> ?PR?CONFSET?GF2488_01F1_E1_RST
  +--> ?PR?SOFTUPDATE?COMM

?PR?_MEMCRC?COMM                               -----    -----      -----    -----      7B3EH    0007H
  +--> ?PR?COMM

?PR?SOFTUPDATE?COMM                            -----    -----      -----    -----      7B3EH    000AH
  +--> ?PR?_ERASEFLASH?COMM
  +--> ?PR?COMM
  +--> ?PR?COPYFLASH?COMM
  +--> ?PR?RESET?COMM
  +--> ?PR?_CHECK_SST_39VF?COMM
  +--> ?PR?_PROGBAKFLASH?COMM
  +--> ?PR?_ERASEAPROM?COMM
  +--> ?PR?_PROGRAMAPROM?COMM
  +--> ?PR?JUMPTOAUX?COMM

?PR?_ERASEFLASH?COMM                           -----    -----      -----    -----      -----    -----
  +--> ?PR?COMM
  +--> ?PR?_DELAY?TIMER
BL51 BANKED LINKER/LOCATER V6.22                                                      05/17/2016  11:14:00  PAGE 7



?PR?COPYFLASH?COMM                             -----    -----      -----    -----      7B48H    0009H
  +--> ?PR?COMM
  +--> ?PR?_PROGRAM_ONE_BYTE?COMM

?PR?_PROGRAM_ONE_BYTE?COMM                     -----    -----      -----    -----      7B53H    0006H
  +--> ?PR?COMM

?PR?_CHECK_SST_39VF?COMM                       -----    -----      -----    -----      -----    -----
  +--> ?PR?COMM

?PR?_PROGBAKFLASH?COMM                         -----    -----      -----    -----      7B48H    000BH
  +--> ?PR?COMM
  +--> ?PR?_PROGRAM_ONE_BYTE?COMM

?PR?_PROGRAMAPROM?COMM                         -----    -----      -----    -----      7B48H    0007H

?PR?PROCHISDATA?COMM                           -----    -----      -----    -----      -----    -----
  +--> ?PR?COMM
  +--> ?CO?GF2488_01F1_E1_RST
  +--> ?PR?RESET?COMM
  +--> ?PR?_MEMCRC?COMM

?PR?DEBUG?DEBUG                                -----    -----      -----    -----      7B3AH    000AH
  +--> ?PR?DEBUG
  +--> ?CO?DEBUG
  +--> ?PR?_DELAY?TIMER
  +--> ?PR?JUMPTOAUX?COMM
  +--> ?PR?PRINTF?PRINTF
  +--> ?PR?TOINT?TOINT
  +--> ?PR?_ISXDIGIT?ISXDIGIT
  +--> ?CO?GF2488_01F1_E1_RST
  +--> ?CO?COMM
  +--> ?PR?_STRNCMP?STRNCMP
  +--> ?PR?RESET?COMM
  +--> ?PR?_CHECK_SST_39VF?COMM
  +--> ?PR?TXDATA?DEBUG

?PR?_STRNCMP?STRNCMP                           -----    -----      -----    -----      7B44H    0008H

?PR?TXDATA?DEBUG                               -----    -----      -----    -----      -----    -----
  +--> ?PR?DEBUG



SYMBOL TABLE OF MODULE:  citrans550f (GF2488_01F1_E1_RST)

  VALUE           TYPE          NAME
  ----------------------------------

  -------         MODULE        GF2488_01F1_E1_RST
  C:0000H         SYMBOL        _ICE_DUMMY_
  C:5F11H         PUBLIC        g_usAlmNum
  B:0020H.7       PUBLIC        IO15
  C:2EADH         PUBLIC        InitioSw1021
  D:0090H         PUBLIC        P1
  D:00B0H         PUBLIC        P3
BL51 BANKED LINKER/LOCATER V6.22                                                      05/17/2016  11:14:00  PAGE 8


  C:61E9H         SYMBOL        checkSW1021Init
  C:5F10H         PUBLIC        g_ucBoardCode
  X:2002H         PUBLIC        g_ucNoUseFlag
  D:00A8H         PUBLIC        IE
  X:2041H         PUBLIC        N1000
  X:20BFH         PUBLIC        ulSesLimit
  X:20C1H         PUBLIC        g_usiNoEs
  X:213FH         PUBLIC        g_usiNoUseBbe
  C:5C2DH         PUBLIC        UasQuarter
  C:5F0FH         PUBLIC        g_ucAlmTypeNum
  C:43B8H         PUBLIC        SelfConf
  C:62CFH         PUBLIC        UasClear
  C:6607H         SYMBOL        _writeExpectJ2
  D:00B8H         PUBLIC        IP
  C:004EH         PUBLIC        GetData
  X:21BDH         PUBLIC        ulEsLimit
  C:4AE9H         PUBLIC        UserHdlc
  C:5FA3H         PUBLIC        SoftDate
  X:21BFH         PUBLIC        g_ucNoUseTime
  C:5F13H         PUBLIC        g_usPmNum
  X:21FEH         PUBLIC        g_usiBbe
  X:227CH         PUBLIC        g_ucState
  X:23CEH         PUBLIC        g_ucConfData
  C:63B1H         PUBLIC        main
  C:5F85H         PUBLIC        PcbTime
  X:2DCEH         PUBLIC        g_ucLineCode
  X:2E0EH         PUBLIC        g_usiCses
  C:5F52H         PUBLIC        BoardSn
  D:0091H         PUBLIC        EXIF
  C:6548H         PUBLIC        UserFunc
  C:5FAFH         PUBLIC        SoftTime
  X:2E8CH         PUBLIC        g_haveTux
  X:2E8DH         PUBLIC        first_conf
  D:0088H         PUBLIC        TCON
  C:39CDH         PUBLIC        ConfSet
  C:5F0EH         PUBLIC        g_ucPmTypeNum
  X:2E8EH         PUBLIC        sw1021Chip
  C:5F90H         PUBLIC        BoardSoftVer
  X:2E90H         PUBLIC        g_ucAlmCode
  X:2E9FH         PUBLIC        g_ucLineMask
  C:2858H         PUBLIC        _CalUas
  X:2EDFH         PUBLIC        ulSesLmt
  X:2FDBH         PUBLIC        g_bClearUas
  X:2FDCH         PUBLIC        g_ucLofFlag
  X:301BH         PUBLIC        g_stuAlm
  D:0020H         PUBLIC        hio
  C:5FB8H         PUBLIC        slot
  C:5F40H         PUBLIC        SysName
  X:6579H         PUBLIC        g_usiOfs
  X:65F7H         PUBLIC        g_usiUas
  X:6675H         PUBLIC        actnumber
  X:6676H         PUBLIC        g_usiSes
  C:002EH         SYMBOL        ChecktuxAB
  X:66F4H         PUBLIC        almnumber
  B:0090H.2       PUBLIC        IO2
  X:66F5H         PUBLIC        g_ucAlmMask
  C:5F62H         PUBLIC        SoftVer
BL51 BANKED LINKER/LOCATER V6.22                                                      05/17/2016  11:14:00  PAGE 9


  B:0090H.5       PUBLIC        IO5
  B:0090H.6       PUBLIC        IO6
  B:0090H.7       PUBLIC        IO7
  X:6704H         PUBLIC        g_liError1s
  B:0020H.0       PUBLIC        IO8
  B:00E8H.1       PUBLIC        EX3
  B:0020H.1       PUBLIC        IO9
  X:6800H         PUBLIC        BIP_2_1S
  X:687EH         PUBLIC        g_usiEs
  D:00E8H         PUBLIC        EIE
  C:5F16H         PUBLIC        chipOffSetc
  C:5F0CH         PUBLIC        g_usStateLen
  C:5F75H         PUBLIC        PcbSn
  C:5F0AH         PUBLIC        g_usConfLen
  X:68FCH         PUBLIC        BIP
  B:00F8H.1       PUBLIC        PX3
  X:697AH         PUBLIC        g_ucPmCode
  C:5F15H         PUBLIC        g_ucLineNum
  D:00F8H         PUBLIC        EIP
  X:6981H         PUBLIC        g_ucUseTime
  X:69C0H         PUBLIC        g_ucAlmType
  X:69CFH         PUBLIC        BIP_2_1000S
  X:6A4DH         PUBLIC        g_stuPm
  D:0098H         PUBLIC        SCON0
  D:00C0H         PUBLIC        SCON1
  D:00C8H         PUBLIC        T2CON
  X:74A3H         PUBLIC        g_ucEsTime
  X:74E2H         PUBLIC        g_ucDefectFlag
  X:7521H         PUBLIC        g_ucPmMask
  C:5F4BH         PUBLIC        BoardName
  C:6782H         SYMBOL        _writeTxJ2
  X:7528H         PUBLIC        g_ucLinePmMask
  B:0020H.2       PUBLIC        IO10
  B:0020H.3       PUBLIC        IO11
  D:00D0H         PUBLIC        PSW
  B:0020H.4       PUBLIC        IO12
  B:0020H.5       PUBLIC        IO13
  D:00D8H         PUBLIC        WDCON
  B:0020H.6       PUBLIC        IO14
  -------         PROC          _CALUAS
  X:7B50H         SYMBOL        ulSesLmt
  -------         DO            
  X:7B53H         SYMBOL        i
  -------         ENDDO         
  C:2858H         LINE#         65
  C:2863H         LINE#         66
  C:2863H         LINE#         70
  C:2873H         LINE#         71
  C:2873H         LINE#         72
  C:2883H         LINE#         73
  C:2883H         LINE#         74
  C:28DBH         LINE#         75
  C:28DBH         LINE#         77
  C:2917H         LINE#         78
  C:2923H         LINE#         79
  C:292FH         LINE#         80
  C:293FH         LINE#         81
BL51 BANKED LINKER/LOCATER V6.22                                                      05/17/2016  11:14:00  PAGE 10


  C:294FH         LINE#         82
  C:2952H         LINE#         84
  C:2952H         LINE#         85
  C:297CH         LINE#         86
  C:297CH         LINE#         87
  C:298DH         LINE#         89
  C:29A9H         LINE#         91
  C:29A9H         LINE#         92
  C:29D2H         LINE#         93
  C:2A13H         LINE#         94
  C:2A13H         LINE#         95
  C:2A15H         LINE#         96
  C:2A25H         LINE#         97
  C:2A53H         LINE#         98
  C:2A53H         LINE#         99
  C:2A63H         LINE#         101
  C:2A85H         LINE#         103
  C:2AA3H         LINE#         105
  C:2AC6H         LINE#         106
  C:2B01H         LINE#         107
  C:2B15H         LINE#         108
  C:2B21H         LINE#         109
  C:2B29H         LINE#         110
  C:2B29H         LINE#         111
  C:2B29H         LINE#         112
  C:2B2CH         LINE#         114
  C:2B2CH         LINE#         116
  C:2B88H         LINE#         117
  C:2B88H         LINE#         118
  C:2B9EH         LINE#         119
  C:2B9EH         LINE#         120
  C:2BAFH         LINE#         122
  C:2BCDH         LINE#         123
  C:2BD9H         LINE#         124
  C:2BD9H         LINE#         126
  C:2C0BH         LINE#         127
  C:2C0EH         LINE#         129
  C:2C0EH         LINE#         130
  C:2C38H         LINE#         131
  C:2C38H         LINE#         132
  C:2C4FH         LINE#         133
  C:2C66H         LINE#         135
  C:2C66H         LINE#         136
  C:2C8FH         LINE#         137
  C:2CD0H         LINE#         138
  C:2CD0H         LINE#         139
  C:2CD2H         LINE#         140
  C:2CE8H         LINE#         142
  C:2D0AH         LINE#         143
  C:2D2CH         LINE#         144
  C:2D55H         LINE#         145
  C:2D64H         LINE#         147
  C:2D64H         LINE#         149
  C:2D64H         LINE#         151
  C:2D74H         LINE#         152
  C:2D89H         LINE#         154
  C:2DB8H         LINE#         155
BL51 BANKED LINKER/LOCATER V6.22                                                      05/17/2016  11:14:00  PAGE 11


  C:2DE7H         LINE#         156
  C:2E16H         LINE#         157
  C:2E45H         LINE#         158
  C:2E74H         LINE#         159
  C:2EA3H         LINE#         161
  C:2EACH         LINE#         163
  -------         ENDPROC       _CALUAS
  -------         PROC          UASCLEAR
  -------         DO            
  D:0007H         SYMBOL        i
  -------         ENDDO         
  C:62CFH         LINE#         165
  C:62CFH         LINE#         166
  C:62CFH         LINE#         169
  C:62D8H         LINE#         170
  C:62D8H         LINE#         171
  C:62DAH         LINE#         172
  C:62DAH         LINE#         173
  C:62E6H         LINE#         174
  C:62F2H         LINE#         175
  C:62FEH         LINE#         176
  C:630AH         LINE#         177
  C:6316H         LINE#         178
  C:6322H         LINE#         179
  C:6332H         LINE#         180
  C:6342H         LINE#         181
  C:6352H         LINE#         182
  C:6362H         LINE#         183
  C:6372H         LINE#         184
  C:6382H         LINE#         185
  C:6392H         LINE#         186
  C:63A2H         LINE#         188
  C:63ABH         LINE#         189
  C:63B0H         LINE#         190
  C:63B0H         LINE#         191
  -------         ENDPROC       UASCLEAR
  -------         PROC          UASQUARTER
  -------         DO            
  D:0007H         SYMBOL        i
  -------         ENDDO         
  C:5C2DH         LINE#         208
  C:5C2DH         LINE#         209
  C:5C2DH         LINE#         211
  C:5C2FH         LINE#         212
  C:5C2FH         LINE#         213
  C:5C3CH         LINE#         214
  C:5C3CH         LINE#         215
  C:5C48H         LINE#         217
  C:5C71H         LINE#         218
  C:5C73H         LINE#         220
  C:5C73H         LINE#         221
  C:5C91H         LINE#         222
  C:5CAFH         LINE#         223
  C:5CD4H         LINE#         225
  C:5CD4H         LINE#         227
  C:5CFFH         LINE#         228
  C:5D2AH         LINE#         229
BL51 BANKED LINKER/LOCATER V6.22                                                      05/17/2016  11:14:00  PAGE 12


  C:5D55H         LINE#         230
  C:5D80H         LINE#         231
  C:5DABH         LINE#         232
  C:5DD6H         LINE#         234
  C:5DDFH         LINE#         235
  C:5DE5H         LINE#         236
  -------         ENDPROC       UASQUARTER
  -------         PROC          _WRITETXJ2
  D:0001H         SYMBOL        chip
  X:7B45H         SYMBOL        witchJ2
  D:0003H         SYMBOL        Slot
  X:7B47H         SYMBOL        j2
  X:7B48H         SYMBOL        busB
  -------         DO            
  X:7B49H         SYMBOL        copOk
  D:0004H         SYMBOL        busBase
  X:7B4BH         SYMBOL        i
  -------         ENDDO         
  C:6782H         LINE#         130
  C:6789H         LINE#         131
  C:6789H         LINE#         132
  C:6790H         LINE#         133
  C:6793H         LINE#         134
  C:6799H         LINE#         135
  C:679FH         LINE#         136
  C:67A1H         LINE#         138
  C:67BFH         LINE#         139
  C:67D0H         LINE#         140
  C:67EDH         LINE#         141
  C:67F7H         LINE#         142
  C:681AH         LINE#         143
  C:6828H         LINE#         144
  C:682FH         LINE#         145
  C:6830H         LINE#         148
  -------         ENDPROC       _WRITETXJ2
  -------         PROC          _WRITEEXPECTJ2
  D:0001H         SYMBOL        chip
  X:7B45H         SYMBOL        witchJ2
  D:0003H         SYMBOL        Slot
  X:7B47H         SYMBOL        j2
  X:7B48H         SYMBOL        busB
  -------         DO            
  X:7B49H         SYMBOL        copOk
  D:0004H         SYMBOL        busBase
  X:7B4BH         SYMBOL        i
  -------         ENDDO         
  C:6607H         LINE#         150
  C:660EH         LINE#         151
  C:660EH         LINE#         152
  C:6615H         LINE#         153
  C:6618H         LINE#         154
  C:661EH         LINE#         155
  C:6624H         LINE#         156
  C:6626H         LINE#         158
  C:6644H         LINE#         159
  C:6664H         LINE#         160
  C:6681H         LINE#         161
BL51 BANKED LINKER/LOCATER V6.22                                                      05/17/2016  11:14:00  PAGE 13


  C:668BH         LINE#         162
  C:66AEH         LINE#         163
  C:66BCH         LINE#         164
  C:66C3H         LINE#         165
  C:66C4H         LINE#         168
  -------         ENDPROC       _WRITEEXPECTJ2
  -------         PROC          GETDATA
  -------         DO            
  X:7B3AH         SYMBOL        i
  X:7B3BH         SYMBOL        m
  X:7B3CH         SYMBOL        n
  X:7B3DH         SYMBOL        mi
  X:7B3EH         SYMBOL        ni
  D:0003H         SYMBOL        tmp
  D:0007H         SYMBOL        tmpi
  X:7B3FH         SYMBOL        ADCLK
  X:7B40H         SYMBOL        PPILOS
  X:7B41H         SYMBOL        TULOP
  X:7B42H         SYMBOL        LPSLM
  X:7B43H         SYMBOL        LPTIM
  X:7B44H         SYMBOL        LPTIU
  X:7B45H         SYMBOL        LPRDI
  X:7B46H         SYMBOL        LPRFI
  X:7B47H         SYMBOL        LPUNEQ
  X:7B48H         SYMBOL        TUAIS
  X:7B49H         SYMBOL        PPIAIS
  X:7B4AH         SYMBOL        LOOP
  X:7B4BH         SYMBOL        LOOPL
  X:7B4CH         SYMBOL        tv5
  X:7B4DH         SYMBOL        LPFEBE
  D:0006H         SYMBOL        HDB3
  X:7B4FH         SYMBOL        lopCnt
  -------         ENDDO         
  C:004EH         LINE#         183
  C:004EH         LINE#         184
  C:004EH         LINE#         188
  C:0053H         LINE#         189
  C:0057H         LINE#         190
  C:005BH         LINE#         191
  C:0064H         LINE#         192
  C:0075H         LINE#         193
  C:0075H         LINE#         195
  C:0082H         LINE#         196
  C:0082H         LINE#         197
  C:0092H         LINE#         199
  C:00A8H         LINE#         201
  C:00ABH         LINE#         203
  C:00ABH         LINE#         204
  C:00B7H         LINE#         205
  C:00C0H         LINE#         206
  C:00CDH         LINE#         207
  C:00D2H         LINE#         209
  C:00E5H         LINE#         211
  C:00F1H         LINE#         212
  C:0103H         LINE#         214
  C:0112H         LINE#         216
  C:0127H         LINE#         218
BL51 BANKED LINKER/LOCATER V6.22                                                      05/17/2016  11:14:00  PAGE 14


  C:013EH         LINE#         219
  C:0166H         LINE#         220
  C:016CH         LINE#         221
  C:0173H         LINE#         234
  C:017FH         LINE#         235
  C:01ABH         LINE#         236
  C:01B2H         LINE#         237
  C:01B9H         LINE#         238
  C:01C0H         LINE#         239
  C:01C5H         LINE#         240
  C:01CAH         LINE#         241
  C:01CFH         LINE#         242
  C:01D4H         LINE#         243
  C:01D9H         LINE#         245
  C:01E2H         LINE#         250
  C:0207H         LINE#         252
  C:0231H         LINE#         253
  C:0233H         LINE#         255
  C:025DH         LINE#         256
  C:025DH         LINE#         262
  C:028BH         LINE#         263
  C:0314H         LINE#         265
  C:0344H         LINE#         266
  C:0382H         LINE#         268
  C:03ABH         LINE#         270
  C:03B1H         LINE#         271
  C:03BAH         LINE#         273
  C:03EAH         LINE#         274
  C:03EAH         LINE#         275
  C:03FFH         LINE#         276
  C:0415H         LINE#         278
  C:0415H         LINE#         279
  C:0430H         LINE#         280
  C:0433H         LINE#         281
  C:0433H         LINE#         283
  C:045EH         LINE#         284
  C:046FH         LINE#         286
  C:0474H         LINE#         287
  C:049FH         LINE#         289
  C:04A1H         LINE#         290
  C:04B1H         LINE#         291
  C:04B1H         LINE#         293
  C:04B3H         LINE#         295
  C:04B3H         LINE#         296
  C:04C8H         LINE#         297
  C:04E1H         LINE#         298
  C:04F6H         LINE#         299
  C:04F6H         LINE#         302
  C:0514H         LINE#         303
  C:0525H         LINE#         304
  C:0543H         LINE#         305
  C:0554H         LINE#         306
  C:055AH         LINE#         307
  C:055AH         LINE#         308
  C:056FH         LINE#         309
  C:0580H         LINE#         310
  C:0591H         LINE#         314
BL51 BANKED LINKER/LOCATER V6.22                                                      05/17/2016  11:14:00  PAGE 15


  C:0595H         LINE#         315
  C:0598H         LINE#         317
  C:0598H         LINE#         318
  C:05B5H         LINE#         319
  C:05C6H         LINE#         320
  C:05E3H         LINE#         321
  C:05F4H         LINE#         322
  C:0611H         LINE#         323
  C:0622H         LINE#         331
  C:063FH         LINE#         332
  C:0650H         LINE#         333
  C:0650H         LINE#         334
  C:066DH         LINE#         335
  C:067EH         LINE#         336
  C:069BH         LINE#         337
  C:06ACH         LINE#         338
  C:06F0H         LINE#         339
  C:0710H         LINE#         340
  C:0726H         LINE#         341
  C:0726H         LINE#         343
  C:0755H         LINE#         345
  C:0790H         LINE#         346
  C:07A1H         LINE#         347
  C:07A1H         LINE#         349
  C:07CAH         LINE#         350
  C:07D0H         LINE#         352
  C:0801H         LINE#         353
  C:082CH         LINE#         354
  C:082CH         LINE#         355
  C:0833H         LINE#         356
  C:0836H         LINE#         357
  C:0838H         LINE#         359
  C:0838H         LINE#         360
  C:083FH         LINE#         361
  C:0870H         LINE#         362
  C:0870H         LINE#         363
  C:0870H         LINE#         364
  C:0879H         LINE#         366
  C:087EH         LINE#         367
  C:087EH         LINE#         368
  C:088AH         LINE#         369
  C:0895H         LINE#         370
  C:08A9H         LINE#         374
  C:08DFH         LINE#         377
  C:08E9H         LINE#         378
  C:08EEH         LINE#         379
  C:091EH         LINE#         380
  C:0942H         LINE#         383
  C:096BH         LINE#         387
  C:0979H         LINE#         391
  C:0983H         LINE#         392
  C:0989H         LINE#         395
  C:098FH         LINE#         396
  C:098FH         LINE#         397
  C:0994H         LINE#         398
  C:0998H         LINE#         399
  C:09A3H         LINE#         400
BL51 BANKED LINKER/LOCATER V6.22                                                      05/17/2016  11:14:00  PAGE 16


  C:09A5H         LINE#         401
  C:09B7H         LINE#         402
  C:09B7H         LINE#         403
  C:09C4H         LINE#         404
  C:09D1H         LINE#         405
  C:09D9H         LINE#         406
  C:09D9H         LINE#         407
  C:09E2H         LINE#         408
  C:09E2H         LINE#         409
  C:09F0H         LINE#         410
  C:09F0H         LINE#         411
  C:0A0EH         LINE#         412
  C:0A0EH         LINE#         413
  C:0A1FH         LINE#         414
  C:0A2CH         LINE#         415
  C:0A2EH         LINE#         417
  C:0A2EH         LINE#         418
  C:0A3EH         LINE#         419
  C:0A4AH         LINE#         420
  C:0A4AH         LINE#         421
  C:0A52H         LINE#         422
  C:0A58H         LINE#         423
  C:0A5CH         LINE#         424
  C:0A62H         LINE#         425
  C:0A62H         LINE#         427
  C:0A65H         LINE#         430
  C:0A6BH         LINE#         431
  C:0A6BH         LINE#         432
  C:0A71H         LINE#         433
  C:0A76H         LINE#         434
  C:0A76H         LINE#         436
  C:0A7FH         LINE#         437
  C:0A7FH         LINE#         438
  C:0A88H         LINE#         440
  C:0A9AH         LINE#         441
  C:0A9AH         LINE#         442
  C:0AC0H         LINE#         443
  C:0AE9H         LINE#         444
  C:0B12H         LINE#         445
  C:0B39H         LINE#         446
  C:0B49H         LINE#         448
  C:0B56H         LINE#         451
  C:0B7FH         LINE#         452
  C:0BA8H         LINE#         456
  C:0BD0H         LINE#         457
  C:0BD0H         LINE#         458
  C:0BE5H         LINE#         459
  C:0BEFH         LINE#         460
  C:0BF2H         LINE#         462
  C:0BF2H         LINE#         463
  C:0C18H         LINE#         464
  C:0C3FH         LINE#         465
  C:0C53H         LINE#         466
  C:0C74H         LINE#         467
  C:0C74H         LINE#         468
  C:0C74H         LINE#         469
  C:0C8DH         LINE#         470
BL51 BANKED LINKER/LOCATER V6.22                                                      05/17/2016  11:14:00  PAGE 17


  C:0C96H         LINE#         471
  C:0CA2H         LINE#         472
  C:0CA2H         LINE#         473
  C:0CA4H         LINE#         475
  C:0CA4H         LINE#         476
  C:0CC1H         LINE#         477
  C:0CD6H         LINE#         478
  C:0CE2H         LINE#         479
  C:0CF6H         LINE#         480
  C:0CF9H         LINE#         482
  C:0CF9H         LINE#         485
  C:0D23H         LINE#         486
  C:0D23H         LINE#         487
  C:0D40H         LINE#         488
  C:0D54H         LINE#         489
  C:0D5DH         LINE#         490
  C:0D71H         LINE#         491
  C:0D85H         LINE#         492
  C:0D8FH         LINE#         493
  C:0D92H         LINE#         498
  C:0D92H         LINE#         501
  C:0DB6H         LINE#         502
  C:0DB6H         LINE#         503
  C:0DD3H         LINE#         504
  C:0DE7H         LINE#         505
  C:0DF0H         LINE#         506
  C:0E04H         LINE#         507
  C:0E18H         LINE#         508
  C:0E22H         LINE#         509
  C:0E25H         LINE#         510
  C:0E25H         LINE#         511
  C:0E28H         LINE#         513
  C:0E28H         LINE#         516
  C:0E44H         LINE#         517
  C:0E44H         LINE#         518
  C:0E5DH         LINE#         519
  C:0E74H         LINE#         520
  C:0E7DH         LINE#         521
  C:0E91H         LINE#         522
  C:0EA5H         LINE#         523
  C:0EB5H         LINE#         524
  C:0EB7H         LINE#         526
  C:0ECDH         LINE#         527
  C:0ECDH         LINE#         528
  C:0ECDH         LINE#         529
  C:0ECDH         LINE#         533
  C:0ED6H         LINE#         535
  C:0EDBH         LINE#         537
  C:0EDBH         LINE#         553
  C:0EE1H         LINE#         557
  C:0EF0H         LINE#         558
  C:0EF4H         LINE#         560
  C:0EF6H         LINE#         561
  C:0EFCH         LINE#         562
  C:0F04H         LINE#         564
  C:0F09H         LINE#         565
  C:0F0FH         LINE#         566
BL51 BANKED LINKER/LOCATER V6.22                                                      05/17/2016  11:14:00  PAGE 18


  C:0F17H         LINE#         568
  C:0F1CH         LINE#         569
  C:0F1FH         LINE#         570
  C:0F26H         LINE#         572
  C:0F2BH         LINE#         574
  -------         ENDPROC       GETDATA
  -------         PROC          USERFUNC
  -------         DO            
  X:7B18H         SYMBOL        i
  D:000AH         SYMBOL        j
  D:000EH         SYMBOL        tmp
  D:000CH         SYMBOL        chip
  X:2000H         SYMBOL        docnt
  -------         ENDDO         
  C:6548H         LINE#         589
  C:654DH         LINE#         593
  C:6551H         LINE#         595
  C:655AH         LINE#         596
  C:656BH         LINE#         597
  C:656FH         LINE#         598
  C:6573H         LINE#         599
  C:6573H         LINE#         600
  C:657AH         LINE#         601
  C:657DH         LINE#         602
  C:65A1H         LINE#         603
  C:65A4H         LINE#         604
  C:65A6H         LINE#         605
  C:65A6H         LINE#         607
  C:65ACH         LINE#         608
  C:65AEH         LINE#         610
  C:65B4H         LINE#         611
  C:65B6H         LINE#         613
  C:65BCH         LINE#         614
  C:65BEH         LINE#         616
  C:65C2H         LINE#         617
  C:65CAH         LINE#         619
  C:65CAH         LINE#         620
  C:65D5H         LINE#         621
  C:65DCH         LINE#         622
  C:65F6H         LINE#         623
  C:6604H         LINE#         624
  C:6604H         LINE#         627
  -------         ENDPROC       USERFUNC
  -------         PROC          CHECKTUXAB
  C:002EH         LINE#         631
  C:0034H         LINE#         634
  C:0036H         LINE#         635
  C:0039H         LINE#         636
  C:003FH         LINE#         639
  C:0041H         LINE#         641
  -------         ENDPROC       CHECKTUXAB
  -------         PROC          CONFSET
  -------         DO            
  X:7B3EH         SYMBOL        i
  X:7B3FH         SYMBOL        j
  X:7B40H         SYMBOL        ilong
  X:7B41H         SYMBOL        m
BL51 BANKED LINKER/LOCATER V6.22                                                      05/17/2016  11:14:00  PAGE 19


  X:7B42H         SYMBOL        n
  X:7B43H         SYMBOL        temp
  -------         ENDDO         
  C:39CDH         LINE#         657
  C:39CDH         LINE#         658
  C:39CDH         LINE#         663
  C:39D5H         LINE#         664
  C:39DDH         LINE#         665
  C:39E5H         LINE#         666
  C:39EDH         LINE#         667
  C:39F5H         LINE#         668
  C:39FDH         LINE#         669
  C:3A05H         LINE#         670
  C:3A17H         LINE#         671
  C:3A22H         LINE#         672
  C:3A2BH         LINE#         673
  C:3A3FH         LINE#         675
  C:3A69H         LINE#         676
  C:3A90H         LINE#         677
  C:3AB6H         LINE#         678
  C:3ADDH         LINE#         680
  C:3AEDH         LINE#         683
  C:3B1AH         LINE#         684
  C:3B23H         LINE#         685
  C:3B4EH         LINE#         687
  C:3B5EH         LINE#         688
  C:3B6BH         LINE#         689
  C:3B78H         LINE#         690
  C:3B7BH         LINE#         691
  C:3BA6H         LINE#         692
  C:3BCCH         LINE#         693
  C:3BDFH         LINE#         694
  C:3BDFH         LINE#         696
  C:3C0AH         LINE#         697
  C:3C0FH         LINE#         698
  C:3C3AH         LINE#         699
  C:3C4BH         LINE#         700
  C:3C57H         LINE#         701
  C:3C63H         LINE#         702
  C:3C63H         LINE#         703
  C:3C63H         LINE#         704
  C:3CA8H         LINE#         705
  C:3CDEH         LINE#         724
  C:3CF0H         LINE#         725
  C:3CF0H         LINE#         726
  C:3CFBH         LINE#         727
  C:3D00H         LINE#         730
  C:3D40H         LINE#         731
  C:3D80H         LINE#         733
  C:3DC1H         LINE#         734
  C:3E02H         LINE#         735
  C:3E0BH         LINE#         737
  C:3E1EH         LINE#         738
  C:3E1EH         LINE#         739
  C:3E2BH         LINE#         740
  C:3E37H         LINE#         741
  C:3E39H         LINE#         743
BL51 BANKED LINKER/LOCATER V6.22                                                      05/17/2016  11:14:00  PAGE 20


  C:3E39H         LINE#         744
  C:3E47H         LINE#         745
  C:3E54H         LINE#         746
  C:3E54H         LINE#         751
  C:3E5DH         LINE#         755
  C:3E62H         LINE#         756
  C:3E62H         LINE#         758
  C:3E72H         LINE#         759
  C:3E72H         LINE#         760
  C:3E92H         LINE#         761
  C:3E92H         LINE#         762
  C:3E9FH         LINE#         763
  C:3EA1H         LINE#         764
  C:3EA1H         LINE#         766
  C:3EB0H         LINE#         768
  C:3EB8H         LINE#         769
  C:3EC2H         LINE#         771
  C:3EC7H         LINE#         772
  C:3EC7H         LINE#         774
  C:3ED7H         LINE#         775
  C:3ED7H         LINE#         776
  C:3EF7H         LINE#         777
  C:3EF7H         LINE#         778
  C:3F04H         LINE#         779
  C:3F06H         LINE#         780
  C:3F06H         LINE#         782
  C:3F15H         LINE#         783
  C:3F1DH         LINE#         784
  C:3F27H         LINE#         786
  C:3F3CH         LINE#         787
  C:3F4FH         LINE#         796
  C:3F57H         LINE#         797
  -------         ENDPROC       CONFSET
  -------         PROC          USERHDLC
  -------         DO            
  X:7B26H         SYMBOL        i
  X:7B27H         SYMBOL        m
  X:7B28H         SYMBOL        n
  X:7B29H         SYMBOL        temp
  X:7B2AH         SYMBOL        addr
  -------         ENDDO         
  C:4AE9H         LINE#         813
  C:4AE9H         LINE#         814
  C:4AE9H         LINE#         818
  C:4AEFH         LINE#         819
  C:4AEFH         LINE#         820
  C:4AF5H         LINE#         821
  C:4AF5H         LINE#         822
  C:4AF5H         LINE#         823
  C:4AF7H         LINE#         824
  C:4AFBH         LINE#         825
  C:4AFBH         LINE#         826
  C:4B00H         LINE#         827
  C:4B00H         LINE#         828
  C:4B00H         LINE#         831
  C:4B20H         LINE#         832
  C:4B20H         LINE#         833
BL51 BANKED LINKER/LOCATER V6.22                                                      05/17/2016  11:14:00  PAGE 21


  C:4B20H         LINE#         834
  C:4B2CH         LINE#         835
  C:4B2CH         LINE#         836
  C:4B40H         LINE#         837
  C:4B43H         LINE#         839
  C:4B5FH         LINE#         840
  C:4B5FH         LINE#         841
  C:4B6FH         LINE#         842
  C:4B7AH         LINE#         843
  C:4B83H         LINE#         845
  C:4B96H         LINE#         846
  C:4BA0H         LINE#         847
  C:4BC8H         LINE#         848
  C:4BCAH         LINE#         849
  C:4BF2H         LINE#         850
  C:4BF2H         LINE#         851
  C:4BF7H         LINE#         852
  C:4C00H         LINE#         853
  C:4C00H         LINE#         854
  C:4C08H         LINE#         855
  C:4C08H         LINE#         856
  C:4C1CH         LINE#         857
  C:4C23H         LINE#         859
  C:4C3FH         LINE#         860
  C:4C3FH         LINE#         861
  C:4C4FH         LINE#         862
  C:4C5AH         LINE#         863
  C:4C63H         LINE#         865
  C:4C76H         LINE#         866
  C:4C80H         LINE#         867
  C:4CA8H         LINE#         868
  C:4CAAH         LINE#         869
  C:4CD2H         LINE#         870
  C:4CD2H         LINE#         871
  C:4CD7H         LINE#         872
  C:4CE0H         LINE#         873
  C:4CE0H         LINE#         875
  C:4CE0H         LINE#         877
  C:4CE0H         LINE#         878
  C:4CF5H         LINE#         879
  C:4CFAH         LINE#         880
  C:4CFCH         LINE#         881
  C:4CFEH         LINE#         882
  C:4D02H         LINE#         884
  C:4D07H         LINE#         885
  C:4D35H         LINE#         886
  C:4D3BH         LINE#         887
  C:4D3CH         LINE#         889
  C:4D3CH         LINE#         890
  C:4D52H         LINE#         891
  C:4D5BH         LINE#         892
  C:4D60H         LINE#         893
  C:4D62H         LINE#         894
  C:4D64H         LINE#         895
  C:4D68H         LINE#         896
  C:4D6DH         LINE#         897
  C:4D9CH         LINE#         898
BL51 BANKED LINKER/LOCATER V6.22                                                      05/17/2016  11:14:00  PAGE 22


  C:4D9CH         LINE#         900
  C:4D9CH         LINE#         901
  C:4D9CH         LINE#         902
  C:4D9EH         LINE#         903
  C:4D9EH         LINE#         907
  C:4D9EH         LINE#         908
  C:4D9EH         LINE#         917
  C:4D9EH         LINE#         918
  C:4D9EH         LINE#         920
  -------         ENDPROC       USERHDLC
  -------         PROC          SELFCONF
  -------         DO            
  X:7B3AH         SYMBOL        i
  X:7B3CH         SYMBOL        j
  X:7B3EH         SYMBOL        ctt
  D:0007H         SYMBOL        ucii
  -------         ENDDO         
  C:43B8H         LINE#         956
  C:43B8H         LINE#         957
  C:43B8H         LINE#         963
  C:43BEH         LINE#         964
  C:43C4H         LINE#         967
  C:43DAH         LINE#         968
  C:43F9H         LINE#         970
  C:4410H         LINE#         971
  C:442FH         LINE#         973
  C:4446H         LINE#         974
  C:4465H         LINE#         976
  C:446FH         LINE#         979
  C:4486H         LINE#         980
  C:44A5H         LINE#         981
  C:44BCH         LINE#         982
  C:44DBH         LINE#         991
  C:44E1H         LINE#         996
  C:44E8H         LINE#         997
  C:4518H         LINE#         998
  C:452FH         LINE#         999
  C:452FH         LINE#         1000
  C:453BH         LINE#         1002
  C:454BH         LINE#         1010
  C:4551H         LINE#         1011
  C:4556H         LINE#         1013
  C:455EH         LINE#         1014
  C:4567H         LINE#         1016
  C:456DH         LINE#         1017
  C:4571H         LINE#         1018
  C:4575H         LINE#         1019
  C:4579H         LINE#         1020
  C:457DH         LINE#         1022
  C:4581H         LINE#         1026
  C:4587H         LINE#         1028
  C:458DH         LINE#         1029
  C:4591H         LINE#         1030
  C:4595H         LINE#         1031
  C:4599H         LINE#         1032
  C:459DH         LINE#         1033
  C:45A0H         LINE#         1034
BL51 BANKED LINKER/LOCATER V6.22                                                      05/17/2016  11:14:00  PAGE 23


  C:45A5H         LINE#         1035
  C:45AAH         LINE#         1037
  C:45AEH         LINE#         1038
  C:45B2H         LINE#         1039
  C:45B5H         LINE#         1040
  C:45B9H         LINE#         1041
  C:45BDH         LINE#         1043
  C:45C0H         LINE#         1044
  C:45C4H         LINE#         1046
  C:45C9H         LINE#         1047
  C:45CBH         LINE#         1048
  C:45CDH         LINE#         1049
  C:45D1H         LINE#         1050
  C:45D3H         LINE#         1051
  C:45D5H         LINE#         1052
  C:45D9H         LINE#         1053
  C:45DDH         LINE#         1054
  C:45DFH         LINE#         1055
  C:45E2H         LINE#         1056
  C:45E6H         LINE#         1057
  C:45E8H         LINE#         1058
  C:45EBH         LINE#         1059
  C:45EDH         LINE#         1060
  C:45EFH         LINE#         1066
  C:45F5H         LINE#         1067
  C:45F5H         LINE#         1068
  C:45FCH         LINE#         1069
  C:45FCH         LINE#         1070
  C:462DH         LINE#         1071
  C:4648H         LINE#         1072
  C:4662H         LINE#         1073
  C:467FH         LINE#         1075
  C:4685H         LINE#         1076
  C:4689H         LINE#         1078
  C:468FH         LINE#         1079
  C:4693H         LINE#         1081
  C:4699H         LINE#         1082
  C:469DH         LINE#         1085
  C:46A4H         LINE#         1086
  C:46A4H         LINE#         1087
  C:46ABH         LINE#         1088
  C:46ABH         LINE#         1089
  C:46DCH         LINE#         1090
  C:46F7H         LINE#         1091
  C:4711H         LINE#         1092
  C:472EH         LINE#         1094
  C:4745H         LINE#         1095
  C:4745H         LINE#         1096
  C:4762H         LINE#         1097
  C:4773H         LINE#         1098
  C:4783H         LINE#         1099
  -------         ENDPROC       SELFCONF
  -------         PROC          INITIOSW1021
  -------         DO            
  X:7B3AH         SYMBOL        i
  X:7B3CH         SYMBOL        j
  X:7B3EH         SYMBOL        m
BL51 BANKED LINKER/LOCATER V6.22                                                      05/17/2016  11:14:00  PAGE 24


  X:7B3FH         SYMBOL        n
  -------         ENDDO         
  C:2EADH         LINE#         1116
  C:2EADH         LINE#         1117
  C:2EADH         LINE#         1121
  C:2EB2H         LINE#         1123
  C:2ECBH         LINE#         1124
  C:2ECBH         LINE#         1125
  C:2EDFH         LINE#         1126
  C:2EE3H         LINE#         1127
  C:2EF9H         LINE#         1133
  C:2F05H         LINE#         1134
  C:2F12H         LINE#         1136
  C:2F1FH         LINE#         1138
  C:2F2CH         LINE#         1141
  C:2F38H         LINE#         1142
  C:2F44H         LINE#         1145
  C:2F5EH         LINE#         1146
  C:2F93H         LINE#         1148
  C:2FC0H         LINE#         1154
  C:2FFBH         LINE#         1155
  C:3029H         LINE#         1156
  C:3064H         LINE#         1162
  C:3096H         LINE#         1165
  C:30F3H         LINE#         1166
  C:3158H         LINE#         1167
  C:31BCH         LINE#         1168
  C:3221H         LINE#         1171
  C:3232H         LINE#         1173
  C:3249H         LINE#         1174
  C:3254H         LINE#         1176
  C:3265H         LINE#         1179
  C:326CH         LINE#         1180
  C:326CH         LINE#         1181
  C:3283H         LINE#         1182
  C:3291H         LINE#         1183
  C:32ABH         LINE#         1184
  C:32ABH         LINE#         1185
  C:32B2H         LINE#         1186
  C:32B2H         LINE#         1187
  C:32DAH         LINE#         1188
  C:3304H         LINE#         1190
  C:332FH         LINE#         1191
  C:3356H         LINE#         1192
  C:3359H         LINE#         1194
  C:3359H         LINE#         1196
  C:3381H         LINE#         1197
  C:33A9H         LINE#         1199
  C:33D2H         LINE#         1200
  C:33FBH         LINE#         1201
  C:33FBH         LINE#         1202
  C:340CH         LINE#         1203
  C:342CH         LINE#         1205
  C:342EH         LINE#         1206
  C:3430H         LINE#         1207
  C:3432H         LINE#         1208
  C:3434H         LINE#         1209
BL51 BANKED LINKER/LOCATER V6.22                                                      05/17/2016  11:14:00  PAGE 25


  C:3436H         LINE#         1210
  C:343CH         LINE#         1212
  -------         ENDPROC       INITIOSW1021
  -------         PROC          CHECKSW1021INIT
  -------         DO            
  X:7B3AH         SYMBOL        ret
  D:0004H         SYMBOL        i
  X:7B3CH         SYMBOL        j
  D:0006H         SYMBOL        reg
  C:62C6H         SYMBOL        quit
  -------         ENDDO         
  C:61E9H         LINE#         1226
  C:61E9H         LINE#         1227
  C:61E9H         LINE#         1228
  C:61F0H         LINE#         1231
  C:61F2H         LINE#         1232
  C:61F2H         LINE#         1233
  C:6204H         LINE#         1234
  C:620AH         LINE#         1235
  C:620AH         LINE#         1236
  C:620DH         LINE#         1237
  C:620DH         LINE#         1238
  C:621FH         LINE#         1239
  C:6225H         LINE#         1240
  C:6225H         LINE#         1241
  C:6227H         LINE#         1242
  C:6227H         LINE#         1244
  C:6237H         LINE#         1245
  C:623AH         LINE#         1246
  C:623AH         LINE#         1247
  C:623CH         LINE#         1248
  C:623CH         LINE#         1250
  C:624CH         LINE#         1251
  C:624FH         LINE#         1252
  C:624FH         LINE#         1253
  C:6251H         LINE#         1254
  C:6251H         LINE#         1256
  C:626AH         LINE#         1257
  C:6298H         LINE#         1258
  C:629EH         LINE#         1259
  C:62A6H         LINE#         1260
  C:62A8H         LINE#         1261
  C:62A8H         LINE#         1262
  C:62B8H         LINE#         1264
  C:62C6H         LINE#         1265
  C:62C6H         LINE#         1266
  C:62CEH         LINE#         1267
  -------         ENDPROC       CHECKSW1021INIT
  -------         PROC          MAIN
  -------         DO            
  D:0007H         SYMBOL        i
  X:7B38H         SYMBOL        ret
  -------         ENDDO         
  C:63B1H         LINE#         1282
  C:63B1H         LINE#         1283
  C:63B1H         LINE#         1285
  C:63B8H         LINE#         1288
BL51 BANKED LINKER/LOCATER V6.22                                                      05/17/2016  11:14:00  PAGE 26


  C:63BBH         LINE#         1290
  C:63C6H         LINE#         1291
  C:63C9H         LINE#         1292
  C:63CCH         LINE#         1295
  C:63CEH         LINE#         1296
  C:63D0H         LINE#         1298
  C:63D0H         LINE#         1299
  C:63D0H         LINE#         1305
  C:63D6H         LINE#         1314
  C:63E1H         LINE#         1315
  C:63E4H         LINE#         1316
  C:63E7H         LINE#         1317
  C:63EAH         LINE#         1318
  C:63EDH         LINE#         1319
  C:63EDH         LINE#         1321
  C:63F0H         LINE#         1322
  C:63F3H         LINE#         1324
  C:63FCH         LINE#         1325
  C:63FCH         LINE#         1326
  C:63FFH         LINE#         1327
  C:6401H         LINE#         1328
  C:6401H         LINE#         1329
  C:6426H         LINE#         1330
  C:644BH         LINE#         1331
  C:6470H         LINE#         1332
  C:6475H         LINE#         1333
  C:6478H         LINE#         1334
  C:647DH         LINE#         1335
  C:647DH         LINE#         1337
  C:6480H         LINE#         1338
  -------         ENDPROC       MAIN
  -------         ENDMOD        GF2488_01F1_E1_RST

  -------         MODULE        TIMER
  C:0000H         SYMBOL        _ICE_DUMMY_
  D:0090H         PUBLIC        P1
  D:00B0H         PUBLIC        P3
  C:5FF8H         PUBLIC        TimerIntep
  X:7BA2H         PUBLIC        g_LampEn
  X:7BA3H         SYMBOL        g_ucTenMs
  D:00A8H         PUBLIC        IE
  D:00C7H         PUBLIC        TA
  D:00B8H         PUBLIC        IP
  C:6F99H         PUBLIC        TimerInit
  X:7BA4H         PUBLIC        g_SecondFlag
  X:7BA5H         PUBLIC        g_QuarterFlag
  D:0088H         PUBLIC        TCON
  X:7BA6H         SYMBOL        ucInActTime
  B:00C8H.7       PUBLIC        TF2
  X:7BA7H         PUBLIC        g_ulResetSec
  D:00E8H         PUBLIC        EIE
  X:7BABH         PUBLIC        g_stuSysClock
  D:00F8H         PUBLIC        EIP
  D:0098H         PUBLIC        SCON0
  D:00C0H         PUBLIC        SCON1
  D:00C8H         PUBLIC        T2CON
  C:70DDH         PUBLIC        _Delay
BL51 BANKED LINKER/LOCATER V6.22                                                      05/17/2016  11:14:00  PAGE 27


  D:00D0H         PUBLIC        PSW
  D:00D8H         PUBLIC        WDCON
  B:00D8H.0       PUBLIC        RWT
  C:0016H         SYMBOL        Com0013
  C:0016H         SYMBOL        L?0020
  C:0016H         SYMBOL        L?0021
  -------         PROC          COM0013
  -------         ENDPROC       COM0013
  -------         PROC          TIMERINTEP
  C:5FF8H         LINE#         37
  C:600EH         LINE#         39
  C:6010H         LINE#         41
  C:6016H         LINE#         42
  C:6023H         LINE#         43
  C:6023H         LINE#         45
  C:6029H         LINE#         46
  C:6029H         LINE#         48
  C:602BH         LINE#         54
  C:602BH         LINE#         57
  C:602EH         LINE#         60
  C:6036H         LINE#         61
  C:6036H         LINE#         62
  C:603AH         LINE#         63
  C:603DH         LINE#         64
  C:6043H         LINE#         65
  C:6062H         LINE#         67
  C:6068H         LINE#         68
  C:6068H         LINE#         69
  C:6073H         LINE#         70
  C:6073H         LINE#         71
  C:6075H         LINE#         72
  C:6079H         LINE#         74
  C:607EH         LINE#         76
  C:6083H         LINE#         77
  C:6086H         LINE#         78
  C:6086H         LINE#         79
  C:6088H         LINE#         81
  C:6088H         LINE#         82
  C:608DH         LINE#         83
  C:6091H         LINE#         84
  C:6096H         LINE#         85
  C:6096H         LINE#         87
  C:609EH         LINE#         88
  C:609EH         LINE#         89
  C:609FH         LINE#         90
  C:60A5H         LINE#         92
  C:60AFH         LINE#         93
  C:60B6H         LINE#         94
  C:60B9H         LINE#         95
  C:60BEH         LINE#         97
  C:60C7H         LINE#         98
  C:60C7H         LINE#         99
  C:60C9H         LINE#         100
  C:60CFH         LINE#         101
  C:60D5H         LINE#         102
  C:60D5H         LINE#         103
  C:60D7H         LINE#         104
BL51 BANKED LINKER/LOCATER V6.22                                                      05/17/2016  11:14:00  PAGE 28


  C:60DDH         LINE#         105
  C:60DDH         LINE#         106
  C:60DDH         LINE#         107
  C:60DDH         LINE#         108
  C:60DDH         LINE#         109
  C:60DDH         LINE#         111
  C:60E0H         LINE#         132
  -------         ENDPROC       TIMERINTEP
  -------         PROC          TIMERINIT
  C:6F99H         LINE#         148
  C:6F99H         LINE#         149
  C:6F99H         LINE#         171
  C:6F9FH         LINE#         172
  C:6FA3H         LINE#         173
  C:6FA7H         LINE#         174
  C:6FABH         LINE#         175
  C:6FAEH         LINE#         176
  C:6FB0H         LINE#         177
  C:6FB2H         LINE#         179
  C:6FB6H         LINE#         180
  C:6FB8H         LINE#         181
  C:6FBCH         LINE#         182
  C:6FBEH         LINE#         184
  C:6FC8H         LINE#         185
  C:6FCDH         LINE#         187
  C:6FD1H         LINE#         192
  -------         ENDPROC       TIMERINIT
  -------         PROC          _DELAY
  D:0007H         SYMBOL        uc10ms
  -------         DO            
  D:0006H         SYMBOL        ucLastTime
  -------         ENDDO         
  C:70DDH         LINE#         208
  C:70DDH         LINE#         209
  C:70DDH         LINE#         212
  C:70E2H         LINE#         213
  C:70E8H         LINE#         214
  C:70E8H         LINE#         216
  C:70F0H         LINE#         217
  C:70F0H         LINE#         218
  C:70F8H         LINE#         220
  C:70FBH         LINE#         222
  C:70FCH         LINE#         223
  C:70FEH         LINE#         224
  C:70FEH         LINE#         225
  C:7100H         LINE#         226
  -------         ENDPROC       _DELAY
  -------         ENDMOD        TIMER

  -------         MODULE        COMM
  C:0000H         SYMBOL        _ICE_DUMMY_
  D:0090H         PUBLIC        P1
  X:76E1H         PUBLIC        g_AllClrFlag
  B:0023H.1       SYMBOL        ResetFlag
  D:00B0H         PUBLIC        P3
  B:0023H.2       SYMBOL        updateFlag
  D:00A5H         PUBLIC        P4
BL51 BANKED LINKER/LOCATER V6.22                                                      05/17/2016  11:14:00  PAGE 29


  C:7132H         PUBLIC        RESET
  X:76E2H         SYMBOL        usiCrcTemp
  B:00A8H.7       PUBLIC        EA
  X:76E4H         PUBLIC        sysErrCode
  B:0023H.3       PUBLIC        HotBoot_f
  C:6831H         SYMBOL        _ReadBctHead
  D:00A8H         PUBLIC        IE
  C:6F22H         PUBLIC        JumpToAux
  B:0023H.4       SYMBOL        isRecOK
  X:76E5H         SYMBOL        PmCodeCRC
  D:00C7H         PUBLIC        TA
  C:4DD5H         PUBLIC        LibDate
  D:00B8H         PUBLIC        IP
  X:76E7H         SYMBOL        g_ConfChange
  C:6B19H         SYMBOL        _ProgBakFlash
  D:0021H         PUBLIC        outport
  B:0023H.5       SYMBOL        isBakRun
  C:4DEAH         PUBLIC        crc_table
  C:545CH         SYMBOL        softUpdate
  C:6DDDH         PUBLIC        _Check_SST_39VF
  B:0021H.1       PUBLIC        HOLD
  B:0021H.6       PUBLIC        LSCE
  C:4DE1H         PUBLIC        LibTime
  C:0F2CH         PUBLIC        ProcCmd
  C:703FH         PUBLIC        BootInit
  X:76E8H         PUBLIC        g_buffcom
  C:4FEAH         PUBLIC        ProcAlmData
  C:6987H         SYMBOL        copyFlash
  D:0087H         PUBLIC        PCON
  X:7B02H         PUBLIC        pfOtherCMD
  D:0088H         PUBLIC        TCON
  C:5881H         PUBLIC        ProcHisData
  D:009FH         PUBLIC        CHPCON
  C:6B87H         SYMBOL        RamTest
  X:7B05H         SYMBOL        g_FileIndex
  C:4DCEH         PUBLIC        LibVer
  B:0023H.6       PUBLIC        ispFlag
  X:7B09H         PUBLIC        g_ReqConfig
  D:00CDH         PUBLIC        TH2
  C:6C5AH         PUBLIC        CommVarInit
  C:5A60H         PUBLIC        _VerShow
  C:6E8EH         PUBLIC        _CRCCCITT
  D:00CCH         PUBLIC        TL2
  D:00E8H         PUBLIC        EIE
  C:6CC0H         SYMBOL        _Program_One_Byte
  B:0021H.4       PUBLIC        ACT
  B:00C8H.2       PUBLIC        TR2
  C:3F58H         SYMBOL        _downSoft
  B:0021H.3       PUBLIC        RED
  X:7B0AH         SYMBOL        g_stuHisTime
  C:6D25H         PUBLIC        _ProgramAPROM
  B:0021H.2       PUBLIC        YELLOW
  D:00F8H         PUBLIC        EIP
  X:7B0EH         PUBLIC        g_ucSetTime
  X:7B0FH         SYMBOL        g_CrcValue
  X:7B11H         SYMBOL        LineCodeCRC
  X:7B13H         SYMBOL        g_HisDataReady
BL51 BANKED LINKER/LOCATER V6.22                                                      05/17/2016  11:14:00  PAGE 30


  C:6FD2H         SYMBOL        _EraseFlash
  C:6F5FH         SYMBOL        ispInit
  D:0098H         PUBLIC        SCON0
  D:00C0H         PUBLIC        SCON1
  D:00C8H         PUBLIC        T2CON
  X:7B14H         SYMBOL        memErrCode
  X:7B15H         SYMBOL        ispType
  X:7B16H         SYMBOL        AlmCodeCRC
  C:6A96H         SYMBOL        _ReadFpgaHead
  C:7101H         PUBLIC        _EraseAPROM
  D:00ADH         PUBLIC        SFRAH
  D:00AEH         PUBLIC        SFRFD
  C:6E38H         PUBLIC        _MemCRC
  D:00ACH         PUBLIC        SFRAL
  D:00D0H         PUBLIC        PSW
  D:00D8H         PUBLIC        WDCON
  B:00D8H.0       PUBLIC        RWT
  D:00AFH         PUBLIC        SFRCN
  C:343DH         SYMBOL        Com018B
  C:343DH         SYMBOL        L?0396
  C:343EH         SYMBOL        L?0397
  C:3442H         SYMBOL        L?0398
  C:3460H         SYMBOL        L?0399
  C:3463H         SYMBOL        L?0400
  C:346BH         SYMBOL        L?0401
  C:346BH         SYMBOL        L?0402
  C:346CH         SYMBOL        L?0403
  C:346FH         SYMBOL        L?0404
  C:3472H         SYMBOL        L?0405
  C:3473H         SYMBOL        L?0406
  C:3477H         SYMBOL        L?0407
  C:3480H         SYMBOL        L?0408
  C:34F2H         SYMBOL        L?0409
  C:34F3H         SYMBOL        L?0410
  C:34F4H         SYMBOL        L?0411
  C:34FFH         SYMBOL        L?0412
  C:3508H         SYMBOL        L?0413
  C:351EH         SYMBOL        L?0414
  C:351FH         SYMBOL        L?0415
  C:3520H         SYMBOL        L?0416
  C:354BH         SYMBOL        L?0417
  C:355DH         SYMBOL        L?0418
  C:3578H         SYMBOL        L?0419
  C:3582H         SYMBOL        L?0420
  C:3584H         SYMBOL        L?0421
  C:3585H         SYMBOL        L?0422
  C:3586H         SYMBOL        L?0423
  C:3589H         SYMBOL        L?0424
  C:3590H         SYMBOL        L?0425
  C:3590H         SYMBOL        L?0426
  C:3595H         SYMBOL        L?0427
  C:35A9H         SYMBOL        L?0428
  C:35ACH         SYMBOL        L?0429
  C:35B0H         SYMBOL        L?0430
  C:35BCH         SYMBOL        L?0433
  C:35C0H         SYMBOL        L?0434
  C:35C8H         SYMBOL        L?0435
BL51 BANKED LINKER/LOCATER V6.22                                                      05/17/2016  11:14:00  PAGE 31


  C:35CFH         SYMBOL        L?0436
  C:35E8H         SYMBOL        L?0437
  C:35F6H         SYMBOL        L?0438
  C:35FFH         SYMBOL        L?0439
  C:3614H         SYMBOL        L?0440
  C:3617H         SYMBOL        L?0441
  C:361AH         SYMBOL        L?0442
  C:3622H         SYMBOL        L?0443
  C:3625H         SYMBOL        L?0444
  C:3629H         SYMBOL        L?0445
  C:362DH         SYMBOL        L?0446
  C:3636H         SYMBOL        L?0447
  C:3636H         SYMBOL        L?0448
  C:363FH         SYMBOL        L?0449
  C:3642H         SYMBOL        L?0450
  C:364BH         SYMBOL        L?0451
  C:3656H         SYMBOL        L?0452
  C:3656H         SYMBOL        L?0453
  C:3660H         SYMBOL        L?0454
  C:3667H         SYMBOL        L?0455
  C:3676H         SYMBOL        L?0456
  C:3684H         SYMBOL        L?0457
  C:3684H         SYMBOL        L?0458
  C:3690H         SYMBOL        L?0459
  C:3698H         SYMBOL        L?0460
  C:3698H         SYMBOL        L?0461
  C:369DH         SYMBOL        L?0462
  C:36A5H         SYMBOL        L?0463
  C:36A5H         SYMBOL        L?0464
  C:36A8H         SYMBOL        L?0465
  C:36B1H         SYMBOL        L?0466
  C:36B1H         SYMBOL        L?0467
  C:36C8H         SYMBOL        L?0468
  C:36D9H         SYMBOL        L?0469
  C:36E3H         SYMBOL        L?0470
  C:36E6H         SYMBOL        L?0471
  C:36FAH         SYMBOL        L?0472
  C:370CH         SYMBOL        L?0474
  C:3717H         SYMBOL        L?0475
  C:371EH         SYMBOL        L?0476
  C:371EH         SYMBOL        L?0477
  C:3724H         SYMBOL        L?0478
  C:372DH         SYMBOL        L?0479
  C:3744H         SYMBOL        L?0480
  C:374AH         SYMBOL        L?0481
  C:376AH         SYMBOL        L?0482
  C:376AH         SYMBOL        L?0483
  C:377CH         SYMBOL        L?0484
  C:3780H         SYMBOL        L?0485
  C:378DH         SYMBOL        L?0486
  C:378DH         SYMBOL        L?0487
  C:3796H         SYMBOL        L?0488
  C:3796H         SYMBOL        L?0489
  C:379EH         SYMBOL        L?0490
  C:37A5H         SYMBOL        L?0491
  C:37A5H         SYMBOL        L?0492
  C:37B1H         SYMBOL        L?0493
BL51 BANKED LINKER/LOCATER V6.22                                                      05/17/2016  11:14:00  PAGE 32


  C:37C4H         SYMBOL        L?0494
  C:37C4H         SYMBOL        L?0495
  C:37C7H         SYMBOL        L?0496
  C:37D1H         SYMBOL        L?0497
  C:37D8H         SYMBOL        L?0498
  C:37E0H         SYMBOL        L?0499
  C:37E2H         SYMBOL        L?0500
  C:37F0H         SYMBOL        L?0503
  C:37F6H         SYMBOL        L?0504
  C:3801H         SYMBOL        L?0505
  C:3801H         SYMBOL        L?0506
  C:3804H         SYMBOL        L?0507
  C:380AH         SYMBOL        L?0508
  C:380AH         SYMBOL        L?0509
  C:3818H         SYMBOL        L?0510
  C:381AH         SYMBOL        L?0511
  C:3821H         SYMBOL        L?0512
  C:3835H         SYMBOL        L?0513
  C:3836H         SYMBOL        L?0514
  C:3837H         SYMBOL        L?0515
  C:383EH         SYMBOL        L?0516
  C:383EH         SYMBOL        L?0517
  C:3847H         SYMBOL        L?0518
  C:384AH         SYMBOL        L?0519
  C:3851H         SYMBOL        L?0520
  C:3851H         SYMBOL        L?0521
  C:3858H         SYMBOL        L?0522
  C:3858H         SYMBOL        L?0523
  C:3863H         SYMBOL        L?0524
  C:3863H         SYMBOL        L?0525
  C:386EH         SYMBOL        L?0526
  C:3874H         SYMBOL        L?0527
  C:387BH         SYMBOL        L?0528
  C:387BH         SYMBOL        L?0529
  C:3882H         SYMBOL        L?0530
  C:3884H         SYMBOL        L?0531
  C:388DH         SYMBOL        L?0532
  C:388EH         SYMBOL        L?0533
  C:3894H         SYMBOL        L?0534
  C:3895H         SYMBOL        L?0535
  C:389BH         SYMBOL        L?0536
  C:389BH         SYMBOL        L?0537
  C:38A4H         SYMBOL        L?0538
  C:38A4H         SYMBOL        L?0539
  C:38ADH         SYMBOL        L?0540
  C:38BAH         SYMBOL        L?0541
  C:38C7H         SYMBOL        L?0542
  C:38C7H         SYMBOL        L?0543
  C:38CDH         SYMBOL        L?0544
  C:38CDH         SYMBOL        L?0545
  C:38D4H         SYMBOL        L?0546
  C:38E1H         SYMBOL        L?0547
  C:38EEH         SYMBOL        L?0548
  C:38EFH         SYMBOL        L?0549
  C:38F7H         SYMBOL        L?0550
  C:38FAH         SYMBOL        L?0551
  C:3901H         SYMBOL        L?0552
BL51 BANKED LINKER/LOCATER V6.22                                                      05/17/2016  11:14:00  PAGE 33


  C:3901H         SYMBOL        L?0553
  C:3908H         SYMBOL        L?0554
  C:3908H         SYMBOL        L?0555
  C:390FH         SYMBOL        L?0556
  C:390FH         SYMBOL        L?0557
  C:3916H         SYMBOL        L?0558
  C:3916H         SYMBOL        L?0559
  C:391DH         SYMBOL        L?0560
  C:3925H         SYMBOL        L?0561
  C:3931H         SYMBOL        L?0562
  C:3931H         SYMBOL        L?0563
  C:3939H         SYMBOL        L?0564
  C:3939H         SYMBOL        L?0565
  C:3941H         SYMBOL        L?0566
  C:394CH         SYMBOL        L?0567
  C:3957H         SYMBOL        L?0568
  C:3962H         SYMBOL        L?0569
  C:396DH         SYMBOL        L?0570
  C:3977H         SYMBOL        L?0571
  C:3982H         SYMBOL        L?0572
  C:3983H         SYMBOL        L?0573
  C:398AH         SYMBOL        L?0574
  C:398BH         SYMBOL        L?0575
  C:3992H         SYMBOL        L?0577
  C:3992H         SYMBOL        L?0578
  C:3999H         SYMBOL        L?0579
  C:3999H         SYMBOL        L?0580
  C:39A0H         SYMBOL        L?0581
  C:39A0H         SYMBOL        L?0582
  C:39A7H         SYMBOL        L?0583
  C:39A7H         SYMBOL        L?0584
  C:39AEH         SYMBOL        L?0585
  C:39AEH         SYMBOL        L?0586
  C:39B5H         SYMBOL        L?0587
  C:39BFH         SYMBOL        L?0588
  C:39BFH         SYMBOL        L?0589
  C:39C6H         SYMBOL        L?0590
  C:39C6H         SYMBOL        L?0591
  -------         PROC          COM018B
  -------         ENDPROC       COM018B
  C:68D0H         SYMBOL        L?0501
  -------         PROC          _READBCTHEAD
  X:7B2BH         SYMBOL        pHead
  C:6831H         LINE#         138
  C:6837H         LINE#         139
  C:6837H         LINE#         145
  C:6845H         LINE#         146
  C:6845H         LINE#         147
  C:685DH         LINE#         148
  C:685DH         LINE#         150
  C:685DH         LINE#         151
  C:686BH         LINE#         153
  C:6887H         LINE#         154
  C:68A3H         LINE#         155
  C:68B3H         LINE#         156
  C:68C3H         LINE#         157
  C:68CFH         LINE#         158
BL51 BANKED LINKER/LOCATER V6.22                                                      05/17/2016  11:14:00  PAGE 34


  C:68CFH         LINE#         160
  -------         ENDPROC       _READBCTHEAD
  -------         PROC          _CHECK_SST_39VF
  D:0007H         SYMBOL        ucIC
  -------         DO            
  D:0004H         SYMBOL        ucSstID
  D:0003H         SYMBOL        ucSstCap
  -------         ENDDO         
  C:6DDDH         LINE#         179
  C:6DDDH         LINE#         180
  C:6DDDH         LINE#         183
  C:6DE7H         LINE#         185
  C:6DE7H         LINE#         186
  C:6DE7H         LINE#         187
  C:6DE7H         LINE#         188
  C:6DE7H         LINE#         189
  C:6DECH         LINE#         190
  C:6DEEH         LINE#         192
  C:6DF8H         LINE#         194
  C:6DFBH         LINE#         195
  C:6DFDH         LINE#         196
  C:6DFFH         LINE#         198
  C:6E02H         LINE#         200
  C:6E08H         LINE#         202
  C:6E0DH         LINE#         204
  C:6E15H         LINE#         205
  C:6E17H         LINE#         206
  C:6E1BH         LINE#         207
  C:6E1BH         LINE#         208
  C:6E20H         LINE#         209
  C:6E26H         LINE#         211
  C:6E2BH         LINE#         213
  C:6E35H         LINE#         215
  C:6E37H         LINE#         216
  -------         ENDPROC       _CHECK_SST_39VF
  -------         PROC          _READFPGAHEAD
  D:0001H         SYMBOL        pHead
  D:0005H         SYMBOL        ucIC
  -------         DO            
  X:7B2BH         SYMBOL        i
  X:7B2DH         SYMBOL        FlashAddr
  -------         ENDDO         
  C:6A96H         LINE#         230
  C:6A96H         LINE#         231
  C:6A96H         LINE#         235
  C:6A99H         LINE#         236
  C:6A99H         LINE#         237
  C:6AA3H         LINE#         238
  C:6AA3H         LINE#         239
  C:6AA7H         LINE#         240
  C:6AA7H         LINE#         241
  C:6AB1H         LINE#         242
  C:6AB1H         LINE#         244
  C:6AB1H         LINE#         245
  C:6AB4H         LINE#         246
  C:6AB4H         LINE#         248
  C:6ABEH         LINE#         249
BL51 BANKED LINKER/LOCATER V6.22                                                      05/17/2016  11:14:00  PAGE 35


  C:6AC8H         LINE#         250
  C:6ACFH         LINE#         251
  C:6ACFH         LINE#         252
  C:6AE2H         LINE#         253
  C:6AE9H         LINE#         254
  C:6AF0H         LINE#         255
  C:6AFCH         LINE#         256
  C:6B16H         LINE#         257
  C:6B18H         LINE#         258
  -------         ENDPROC       _READFPGAHEAD
  -------         PROC          ISPINIT
  C:6F5FH         LINE#         273
  C:6F5FH         LINE#         274
  C:6F5FH         LINE#         276
  C:6F61H         LINE#         277
  C:6F63H         LINE#         278
  C:6F65H         LINE#         279
  C:6F67H         LINE#         281
  C:6F6FH         LINE#         282
  C:6F79H         LINE#         284
  C:6F7BH         LINE#         285
  C:6F80H         LINE#         288
  C:6F89H         LINE#         291
  C:6F98H         LINE#         292
  -------         ENDPROC       ISPINIT
  C:7121H         SYMBOL        L?0432
  -------         PROC          L?0431
  -------         ENDPROC       L?0431
  C:7121H         SYMBOL        L?0432
  -------         PROC          RESET
  C:7132H         LINE#         303
  C:7132H         LINE#         304
  C:7132H         LINE#         306
  C:7135H         LINE#         307
  -------         ENDPROC       RESET
  -------         PROC          _ERASEFLASH
  D:0007H         SYMBOL        ucIC
  C:6FD2H         LINE#         335
  C:6FD2H         LINE#         336
  C:6FD2H         LINE#         337
  C:6FDCH         LINE#         339
  C:6FDCH         LINE#         340
  C:6FDCH         LINE#         342
  C:6FDCH         LINE#         343
  C:6FDCH         LINE#         345
  C:6FE1H         LINE#         346
  C:6FE3H         LINE#         348
  C:6FEAH         LINE#         349
  C:6FEDH         LINE#         351
  C:6FF1H         LINE#         352
  C:6FF1H         LINE#         354
  C:6FF6H         LINE#         355
  C:6FFCH         LINE#         357
  C:7002H         LINE#         359
  C:7007H         LINE#         361
  C:7009H         LINE#         362
  -------         ENDPROC       _ERASEFLASH
BL51 BANKED LINKER/LOCATER V6.22                                                      05/17/2016  11:14:00  PAGE 36


  -------         PROC          _PROGRAM_ONE_BYTE
  D:0007H         SYMBOL        ucIC
  D:0005H         SYMBOL        ucSrcByte
  X:7B55H         SYMBOL        FlashAddr
  -------         DO            
  D:0005H         SYMBOL        ucPreData
  D:0006H         SYMBOL        ucCurrData
  D:0007H         SYMBOL        ucTimeOut
  -------         ENDDO         
  C:6CC0H         LINE#         376
  C:6CC0H         LINE#         377
  C:6CC0H         LINE#         382
  C:6CCAH         LINE#         384
  C:6CD1H         LINE#         385
  C:6CD4H         LINE#         387
  C:6CD7H         LINE#         388
  C:6CD7H         LINE#         390
  C:6CDCH         LINE#         391
  C:6CE2H         LINE#         393
  C:6CEAH         LINE#         395
  C:6CFDH         LINE#         396
  C:6D02H         LINE#         400
  C:6D04H         LINE#         401
  C:6D08H         LINE#         403
  C:6D11H         LINE#         404
  C:6D11H         LINE#         405
  C:6D18H         LINE#         406
  C:6D1BH         LINE#         407
  C:6D1BH         LINE#         408
  C:6D1EH         LINE#         409
  C:6D1EH         LINE#         410
  C:6D20H         LINE#         411
  C:6D22H         LINE#         412
  C:6D24H         LINE#         413
  -------         ENDPROC       _PROGRAM_ONE_BYTE
  -------         PROC          _PROGBAKFLASH
  X:7B48H         SYMBOL        pSour
  X:7B4BH         SYMBOL        dstAddr
  X:7B4FH         SYMBOL        length
  C:6B19H         LINE#         426
  C:6B1FH         LINE#         427
  C:6B1FH         LINE#         428
  C:6B2CH         LINE#         429
  C:6B2CH         LINE#         430
  C:6B52H         LINE#         431
  C:6B52H         LINE#         432
  C:6B59H         LINE#         433
  C:6B5CH         LINE#         434
  C:6B5CH         LINE#         436
  C:6B68H         LINE#         437
  C:6B72H         LINE#         439
  C:6B81H         LINE#         440
  C:6B84H         LINE#         442
  C:6B86H         LINE#         443
  -------         ENDPROC       _PROGBAKFLASH
  -------         PROC          COPYFLASH
  X:7B48H         SYMBOL        FlashAddr
BL51 BANKED LINKER/LOCATER V6.22                                                      05/17/2016  11:14:00  PAGE 37


  X:7B4CH         SYMBOL        length
  -------         DO            
  X:7B50H         SYMBOL        val_tmp
  -------         ENDDO         
  C:6987H         LINE#         456
  C:6987H         LINE#         457
  C:6987H         LINE#         460
  C:6998H         LINE#         461
  C:6998H         LINE#         462
  C:699BH         LINE#         464
  C:69A1H         LINE#         465
  C:69B4H         LINE#         466
  C:69BCH         LINE#         468
  C:69E4H         LINE#         469
  C:69E4H         LINE#         470
  C:69EBH         LINE#         471
  C:69EEH         LINE#         472
  C:69EEH         LINE#         474
  C:69FAH         LINE#         475
  C:6A09H         LINE#         476
  C:6A0CH         LINE#         477
  C:6A0EH         LINE#         478
  -------         ENDPROC       COPYFLASH
  -------         PROC          JUMPTOAUX
  C:6F22H         LINE#         495
  C:6F22H         LINE#         496
  C:6F22H         LINE#         506
  C:6F25H         LINE#         508
  C:6F39H         LINE#         509
  C:6F48H         LINE#         511
  C:6F4BH         LINE#         512
  C:6F4EH         LINE#         513
  C:6F51H         LINE#         515
  C:6F53H         LINE#         516
  C:6F56H         LINE#         517
  C:6F59H         LINE#         518
  C:6F5BH         LINE#         520
  C:6F5EH         LINE#         521
  -------         ENDPROC       JUMPTOAUX
  -------         PROC          _PROGRAMAPROM
  D:0001H         SYMBOL        pSour
  X:7B4BH         SYMBOL        dstAddr
  X:7B4DH         SYMBOL        length
  -------         DO            
  D:0007H         SYMBOL        TmpIE
  -------         ENDDO         
  C:6D25H         LINE#         534
  C:6D25H         LINE#         535
  C:6D25H         LINE#         538
  C:6D27H         LINE#         540
  C:6D2AH         LINE#         541
  C:6D2DH         LINE#         542
  C:6D2FH         LINE#         544
  C:6D3EH         LINE#         545
  C:6D3EH         LINE#         546
  C:6D43H         LINE#         547
  C:6D49H         LINE#         548
BL51 BANKED LINKER/LOCATER V6.22                                                      05/17/2016  11:14:00  PAGE 38


  C:6D4DH         LINE#         550
  C:6D50H         LINE#         551
  C:6D53H         LINE#         552
  C:6D55H         LINE#         553
  C:6D58H         LINE#         555
  C:6D5AH         LINE#         557
  C:6D61H         LINE#         558
  C:6D6CH         LINE#         559
  C:6D7AH         LINE#         560
  C:6D7CH         LINE#         562
  C:6D7EH         LINE#         564
  C:6D80H         LINE#         565
  -------         ENDPROC       _PROGRAMAPROM
  -------         PROC          _ERASEAPROM
  D:0007H         SYMBOL        uctemp
  -------         DO            
  D:0007H         SYMBOL        TmpIE
  -------         ENDDO         
  C:7101H         LINE#         581
  C:7101H         LINE#         582
  C:7101H         LINE#         585
  C:7104H         LINE#         586
  C:7107H         LINE#         587
  C:710AH         LINE#         588
  C:710CH         LINE#         590
  C:710EH         LINE#         591
  C:7110H         LINE#         592
  C:7113H         LINE#         593
  C:7116H         LINE#         594
  C:7119H         LINE#         595
  C:711BH         LINE#         596
  C:711EH         LINE#         598
  C:7120H         LINE#         599
  -------         ENDPROC       _ERASEAPROM
  -------         PROC          _CRCCCITT
  X:7B2BH         SYMBOL        dat
  X:7B2EH         SYMBOL        length
  X:7B30H         SYMBOL        crc
  -------         DO            
  D:0004H         SYMBOL        temp
  -------         ENDDO         
  C:6E8EH         LINE#         667
  C:6E97H         LINE#         668
  C:6E97H         LINE#         671
  C:6EA6H         LINE#         672
  C:6EA6H         LINE#         673
  C:6EB8H         LINE#         674
  C:6EC5H         LINE#         675
  C:6ED3H         LINE#         676
  C:6ED5H         LINE#         677
  C:6EDDH         LINE#         678
  -------         ENDPROC       _CRCCCITT
  -------         PROC          SOFTUPDATE
  -------         DO            
  X:7B3EH         SYMBOL        dataLen
  X:7B40H         SYMBOL        tmp_ul
  -------         DO            
BL51 BANKED LINKER/LOCATER V6.22                                                      05/17/2016  11:14:00  PAGE 39


  X:7B44H         SYMBOL        progAddr
  X:7B44H         SYMBOL        progAddr
  -------         ENDDO         
  -------         DO            
  X:7B44H         SYMBOL        progAddr
  -------         ENDDO         
  -------         ENDDO         
  C:545CH         LINE#         691
  C:545CH         LINE#         692
  C:545CH         LINE#         704
  C:545FH         LINE#         705
  C:545FH         LINE#         706
  C:5466H         LINE#         708
  C:546BH         LINE#         710
  C:5475H         LINE#         712
  C:548AH         LINE#         713
  C:548AH         LINE#         714
  C:5494H         LINE#         716
  C:54AAH         LINE#         717
  C:54AAH         LINE#         718
  C:54AEH         LINE#         719
  C:54B1H         LINE#         720
  C:54B1H         LINE#         721
  C:54B1H         LINE#         723
  C:54B3H         LINE#         724
  C:54B6H         LINE#         726
  C:54B6H         LINE#         728
  C:54BEH         LINE#         729
  C:54C6H         LINE#         731
  C:54D2H         LINE#         732
  C:54D2H         LINE#         735
  C:54DEH         LINE#         736
  C:54DEH         LINE#         737
  C:54E7H         LINE#         738
  C:54E7H         LINE#         739
  C:54EEH         LINE#         740
  C:54F1H         LINE#         741
  C:54FBH         LINE#         742
  C:54FBH         LINE#         743
  C:5502H         LINE#         744
  C:5505H         LINE#         746
  C:5505H         LINE#         747
  C:550AH         LINE#         749
  C:5511H         LINE#         752
  C:5511H         LINE#         753
  C:5511H         LINE#         755
  C:551BH         LINE#         756
  C:5531H         LINE#         757
  C:5531H         LINE#         758
  C:5534H         LINE#         760
  C:5534H         LINE#         762
  C:553EH         LINE#         763
  C:5564H         LINE#         764
  C:5564H         LINE#         765
  C:5567H         LINE#         767
  C:5567H         LINE#         768
  C:5567H         LINE#         769
BL51 BANKED LINKER/LOCATER V6.22                                                      05/17/2016  11:14:00  PAGE 40


  C:5567H         LINE#         770
  C:556AH         LINE#         772
  C:556AH         LINE#         773
  C:5573H         LINE#         774
  C:558CH         LINE#         775
  C:558CH         LINE#         776
  C:558FH         LINE#         778
  C:558FH         LINE#         779
  C:5598H         LINE#         781
  C:559EH         LINE#         782
  C:559EH         LINE#         783
  C:55A6H         LINE#         784
  C:55A6H         LINE#         785
  C:55A8H         LINE#         786
  C:55ABH         LINE#         788
  C:55ABH         LINE#         789
  C:55B3H         LINE#         790
  C:55B3H         LINE#         791
  C:55B5H         LINE#         792
  C:55BBH         LINE#         793
  C:55BBH         LINE#         794
  C:55BBH         LINE#         795
  C:55BBH         LINE#         796
  C:55BEH         LINE#         798
  C:55C9H         LINE#         799
  C:55C9H         LINE#         802
  C:55D2H         LINE#         803
  C:55D2H         LINE#         804
  C:55D7H         LINE#         807
  C:55D7H         LINE#         808
  C:55D7H         LINE#         810
  C:55E0H         LINE#         811
  C:55F2H         LINE#         813
  C:55F9H         LINE#         814
  C:561EH         LINE#         816
  C:5624H         LINE#         817
  C:5626H         LINE#         819
  C:5626H         LINE#         820
  C:563CH         LINE#         821
  C:5654H         LINE#         823
  C:565DH         LINE#         825
  C:5660H         LINE#         826
  C:5660H         LINE#         827
  C:566AH         LINE#         828
  C:566DH         LINE#         829
  C:566DH         LINE#         830
  C:566DH         LINE#         831
  C:566DH         LINE#         834
  C:566FH         LINE#         835
  -------         ENDPROC       SOFTUPDATE
  -------         PROC          _DOWNSOFT
  X:7B26H         SYMBOL        pSour
  X:7B29H         SYMBOL        length
  C:3F58H         LINE#         846
  C:3F61H         LINE#         847
  C:3F61H         LINE#         848
  C:3F64H         LINE#         849
BL51 BANKED LINKER/LOCATER V6.22                                                      05/17/2016  11:14:00  PAGE 41


  C:3F64H         LINE#         850
  C:3F73H         LINE#         852
  C:3F73H         LINE#         854
  C:3F89H         LINE#         858
  C:3FA8H         LINE#         860
  C:3FA8H         LINE#         861
  C:3FA8H         LINE#         862
  C:3FA8H         LINE#         864
  C:3FB8H         LINE#         865
  C:3FB8H         LINE#         866
  C:3FC0H         LINE#         868
  C:3FC0H         LINE#         870
  C:3FD2H         LINE#         871
  C:3FD2H         LINE#         872
  C:3FDAH         LINE#         874
  C:3FDAH         LINE#         876
  C:3FE2H         LINE#         877
  C:3FE2H         LINE#         878
  C:4004H         LINE#         879
  C:4004H         LINE#         880
  C:4013H         LINE#         882
  C:4013H         LINE#         884
  C:4022H         LINE#         885
  C:4022H         LINE#         886
  C:402AH         LINE#         888
  C:402AH         LINE#         890
  C:4036H         LINE#         892
  C:403EH         LINE#         893
  C:403EH         LINE#         894
  C:4045H         LINE#         895
  C:4045H         LINE#         896
  C:4051H         LINE#         898
  C:4051H         LINE#         900
  C:4063H         LINE#         901
  C:4063H         LINE#         902
  C:4072H         LINE#         904
  C:4072H         LINE#         906
  C:4078H         LINE#         908
  C:407BH         LINE#         909
  C:4089H         LINE#         910
  C:4089H         LINE#         911
  C:4091H         LINE#         912
  C:4091H         LINE#         913
  C:409DH         LINE#         915
  C:409DH         LINE#         917
  C:40A2H         LINE#         918
  C:40A2H         LINE#         919
  C:40AEH         LINE#         921
  C:40AEH         LINE#         923
  C:40C0H         LINE#         924
  C:40C0H         LINE#         925
  C:40CFH         LINE#         927
  C:40CFH         LINE#         929
  C:40D7H         LINE#         930
  C:40D9H         LINE#         932
  C:40D9H         LINE#         933
  C:40E5H         LINE#         935
BL51 BANKED LINKER/LOCATER V6.22                                                      05/17/2016  11:14:00  PAGE 42


  C:40E5H         LINE#         938
  C:4105H         LINE#         939
  C:4105H         LINE#         940
  C:4111H         LINE#         941
  C:4114H         LINE#         942
  C:4127H         LINE#         943
  C:4127H         LINE#         944
  C:412CH         LINE#         945
  C:412FH         LINE#         947
  C:412FH         LINE#         948
  C:4137H         LINE#         949
  C:4137H         LINE#         950
  C:4143H         LINE#         951
  C:4146H         LINE#         952
  C:4164H         LINE#         953
  C:4164H         LINE#         954
  C:4166H         LINE#         955
  C:4169H         LINE#         956
  C:416BH         LINE#         957
  C:416BH         LINE#         965
  C:416EH         LINE#         966
  C:4188H         LINE#         967
  C:4188H         LINE#         968
  C:418DH         LINE#         969
  C:418DH         LINE#         970
  C:4199H         LINE#         971
  C:4199H         LINE#         972
  C:41A1H         LINE#         974
  C:41A1H         LINE#         975
  C:41A9H         LINE#         976
  C:41B9H         LINE#         977
  C:41C1H         LINE#         978
  C:41C9H         LINE#         980
  C:41D3H         LINE#         981
  C:41D3H         LINE#         983
  C:41E3H         LINE#         984
  C:41E3H         LINE#         985
  C:41EFH         LINE#         987
  C:41EFH         LINE#         989
  C:4204H         LINE#         990
  C:4204H         LINE#         991
  C:4224H         LINE#         992
  C:424CH         LINE#         994
  C:4255H         LINE#         996
  C:425CH         LINE#         997
  C:425CH         LINE#         998
  C:4267H         LINE#         999
  C:4267H         LINE#         1000
  C:4269H         LINE#         1001
  C:426BH         LINE#         1002
  C:4277H         LINE#         1003
  C:427AH         LINE#         1005
  C:427AH         LINE#         1006
  C:4286H         LINE#         1007
  C:4286H         LINE#         1008
  C:4289H         LINE#         1010
  C:4289H         LINE#         1011
BL51 BANKED LINKER/LOCATER V6.22                                                      05/17/2016  11:14:00  PAGE 43


  C:428BH         LINE#         1012
  C:428BH         LINE#         1013
  C:428CH         LINE#         1014
  C:429EH         LINE#         1015
  C:429EH         LINE#         1016
  C:42B5H         LINE#         1017
  C:42BDH         LINE#         1019
  C:42C2H         LINE#         1020
  C:42C5H         LINE#         1021
  C:42DAH         LINE#         1022
  C:42E6H         LINE#         1023
  C:42E9H         LINE#         1024
  C:42F5H         LINE#         1025
  C:42F8H         LINE#         1027
  C:42F8H         LINE#         1028
  C:4301H         LINE#         1030
  C:4307H         LINE#         1031
  C:4307H         LINE#         1032
  C:4309H         LINE#         1033
  C:430EH         LINE#         1034
  C:4310H         LINE#         1035
  C:4310H         LINE#         1036
  C:4311H         LINE#         1038
  C:4311H         LINE#         1039
  C:431BH         LINE#         1040
  C:431BH         LINE#         1041
  C:4321H         LINE#         1042
  C:4323H         LINE#         1043
  C:4325H         LINE#         1044
  C:4326H         LINE#         1045
  C:432FH         LINE#         1046
  C:4332H         LINE#         1048
  C:4332H         LINE#         1049
  C:433BH         LINE#         1050
  C:4345H         LINE#         1051
  C:434DH         LINE#         1053
  C:435AH         LINE#         1055
  C:4361H         LINE#         1056
  C:4361H         LINE#         1057
  C:436DH         LINE#         1058
  C:436DH         LINE#         1060
  C:436DH         LINE#         1061
  C:4374H         LINE#         1062
  C:4374H         LINE#         1063
  C:437DH         LINE#         1064
  C:437DH         LINE#         1065
  C:437FH         LINE#         1066
  C:4393H         LINE#         1067
  C:4393H         LINE#         1069
  C:439FH         LINE#         1070
  C:43A8H         LINE#         1071
  C:43A8H         LINE#         1072
  C:43A8H         LINE#         1073
  C:43A8H         LINE#         1075
  C:43A8H         LINE#         1076
  C:43B7H         LINE#         1078
  C:43B7H         LINE#         1079
BL51 BANKED LINKER/LOCATER V6.22                                                      05/17/2016  11:14:00  PAGE 44


  -------         ENDPROC       _DOWNSOFT
  C:5C1EH         SYMBOL        L?0502
  -------         PROC          _VERSHOW
  X:7B26H         SYMBOL        pSour
  X:7B29H         SYMBOL        pTarget
  -------         DO            
  X:7B2CH         SYMBOL        ucTempLen
  X:7B2DH         SYMBOL        ucTemp
  -------         ENDDO         
  C:5A60H         LINE#         46
  C:5A66H         LINE#         47
  C:5A66H         LINE#         50
  C:5A6BH         LINE#         51
  C:5A80H         LINE#         52
  C:5A86H         LINE#         53
  C:5A8BH         LINE#         54
  C:5AADH         LINE#         55
  C:5AADH         LINE#         56
  C:5AB5H         LINE#         57
  C:5AB8H         LINE#         59
  C:5AC7H         LINE#         60
  C:5ACEH         LINE#         61
  C:5AD4H         LINE#         62
  C:5ADEH         LINE#         63
  C:5AE4H         LINE#         64
  C:5AEEH         LINE#         65
  C:5AF5H         LINE#         66
  C:5AFFH         LINE#         67
  C:5B06H         LINE#         68
  C:5B12H         LINE#         70
  C:5B12H         LINE#         71
  C:5B15H         LINE#         73
  C:5B24H         LINE#         74
  C:5B2BH         LINE#         75
  C:5B32H         LINE#         76
  C:5B3CH         LINE#         77
  C:5B43H         LINE#         78
  C:5B4DH         LINE#         79
  C:5B54H         LINE#         80
  C:5B5EH         LINE#         81
  C:5B65H         LINE#         82
  C:5B71H         LINE#         84
  C:5B71H         LINE#         85
  C:5B74H         LINE#         87
  C:5B85H         LINE#         88
  C:5B8CH         LINE#         89
  C:5B91H         LINE#         90
  C:5BB3H         LINE#         91
  C:5BB3H         LINE#         92
  C:5BBBH         LINE#         93
  C:5BBEH         LINE#         95
  C:5BCFH         LINE#         96
  C:5BD6H         LINE#         97
  C:5BE7H         LINE#         98
  C:5C08H         LINE#         99
  C:5C08H         LINE#         101
  C:5C10H         LINE#         102
BL51 BANKED LINKER/LOCATER V6.22                                                      05/17/2016  11:14:00  PAGE 45


  C:5C18H         LINE#         104
  C:5C1DH         LINE#         105
  -------         ENDPROC       _VERSHOW
  -------         PROC          _MEMCRC
  X:7B3EH         SYMBOL        ucDat
  X:7B41H         SYMBOL        len
  -------         DO            
  X:7B43H         SYMBOL        usCrc
  D:0004H         SYMBOL        temp
  -------         ENDDO         
  C:6E38H         LINE#         117
  C:6E41H         LINE#         118
  C:6E41H         LINE#         121
  C:6E47H         LINE#         123
  C:6E56H         LINE#         124
  C:6E56H         LINE#         125
  C:6E68H         LINE#         126
  C:6E75H         LINE#         127
  C:6E83H         LINE#         128
  C:6E85H         LINE#         129
  C:6E8DH         LINE#         130
  -------         ENDPROC       _MEMCRC
  -------         PROC          RAMTEST
  -------         DO            
  D:001AH         SYMBOL        i
  -------         ENDDO         
  C:6B87H         LINE#         142
  C:6B87H         LINE#         143
  C:6B87H         LINE#         144
  C:6B87H         LINE#         145
  C:6B8DH         LINE#         146
  C:6B8FH         LINE#         147
  C:6B95H         LINE#         148
  C:6B9AH         LINE#         149
  C:6B9AH         LINE#         150
  C:6BA8H         LINE#         151
  C:6BB9H         LINE#         154
  C:6BBBH         LINE#         155
  C:6BC1H         LINE#         157
  C:6BC6H         LINE#         158
  C:6BC6H         LINE#         159
  C:6BD4H         LINE#         160
  C:6BE5H         LINE#         162
  C:6BEBH         LINE#         163
  C:6BF1H         LINE#         164
  -------         ENDPROC       RAMTEST
  -------         PROC          COMMVARINIT
  C:6C5AH         LINE#         178
  C:6C5AH         LINE#         179
  C:6C5AH         LINE#         180
  C:6C5DH         LINE#         183
  C:6C62H         LINE#         184
  C:6C64H         LINE#         185
  C:6C66H         LINE#         186
  C:6C6AH         LINE#         188
  C:6C6DH         LINE#         189
  C:6C73H         LINE#         190
BL51 BANKED LINKER/LOCATER V6.22                                                      05/17/2016  11:14:00  PAGE 46


  C:6C78H         LINE#         192
  C:6C7CH         LINE#         193
  C:6C80H         LINE#         195
  C:6C8BH         LINE#         199
  C:6C9EH         LINE#         201
  C:6C9EH         LINE#         202
  C:6CA5H         LINE#         203
  C:6CADH         LINE#         204
  C:6CADH         LINE#         206
  C:6CB3H         LINE#         207
  C:6CB9H         LINE#         208
  C:6CBFH         LINE#         209
  -------         ENDPROC       COMMVARINIT
  -------         PROC          BOOTINIT
  C:703FH         LINE#         224
  C:703FH         LINE#         225
  C:703FH         LINE#         226
  C:7042H         LINE#         235
  C:7045H         LINE#         236
  C:7048H         LINE#         240
  C:704BH         LINE#         241
  C:704EH         LINE#         242
  C:7054H         LINE#         279
  C:7057H         LINE#         281
  C:705AH         LINE#         283
  C:705DH         LINE#         284
  C:7060H         LINE#         287
  C:7063H         LINE#         288
  C:7065H         LINE#         291
  C:7068H         LINE#         292
  -------         ENDPROC       BOOTINIT
  -------         PROC          PROCALMDATA
  -------         DO            
  X:7B3AH         SYMBOL        ucRed
  X:7B3BH         SYMBOL        ucYellow
  -------         DO            
  X:7B3CH         SYMBOL        i
  -------         ENDDO         
  -------         ENDDO         
  C:4FEAH         LINE#         313
  C:4FEAH         LINE#         314
  C:4FEAH         LINE#         318
  C:4FF0H         LINE#         319
  C:4FF9H         LINE#         320
  C:4FF9H         LINE#         321
  C:4FFFH         LINE#         322
  C:4FFFH         LINE#         323
  C:4FFFH         LINE#         324
  C:5002H         LINE#         325
  C:5004H         LINE#         326
  C:500CH         LINE#         327
  C:500CH         LINE#         329
  C:5024H         LINE#         330
  C:5032H         LINE#         331
  C:5047H         LINE#         333
  C:504DH         LINE#         334
  C:504DH         LINE#         336
BL51 BANKED LINKER/LOCATER V6.22                                                      05/17/2016  11:14:00  PAGE 47


  C:5050H         LINE#         338
  C:5057H         LINE#         339
  C:5057H         LINE#         340
  C:5059H         LINE#         341
  C:505CH         LINE#         343
  C:505FH         LINE#         344
  C:505FH         LINE#         346
  C:5062H         LINE#         347
  C:5062H         LINE#         348
  C:5065H         LINE#         350
  C:5068H         LINE#         351
  C:5068H         LINE#         353
  C:506EH         LINE#         354
  C:5070H         LINE#         356
  C:507DH         LINE#         357
  C:507DH         LINE#         360
  C:5095H         LINE#         361
  C:5095H         LINE#         362
  C:50A3H         LINE#         363
  C:50A3H         LINE#         364
  C:50C6H         LINE#         365
  C:50C6H         LINE#         366
  C:50DCH         LINE#         367
  C:50DCH         LINE#         368
  C:50DCH         LINE#         369
  C:50DCH         LINE#         370
  C:50E1H         LINE#         371
  C:50E3H         LINE#         372
  C:50E3H         LINE#         373
  C:50E8H         LINE#         374
  C:50EAH         LINE#         375
  C:50EAH         LINE#         376
  C:50EAH         LINE#         377
  C:50EAH         LINE#         378
  C:50F0H         LINE#         379
  C:50F0H         LINE#         380
  C:50F0H         LINE#         381
  C:50F3H         LINE#         382
  C:50F3H         LINE#         383
  C:50F5H         LINE#         384
  C:5103H         LINE#         385
  C:5103H         LINE#         387
  C:511CH         LINE#         388
  C:511CH         LINE#         389
  C:5125H         LINE#         390
  C:5125H         LINE#         391
  C:5125H         LINE#         392
  C:512DH         LINE#         393
  C:5139H         LINE#         394
  C:5139H         LINE#         395
  C:5148H         LINE#         396
  C:5153H         LINE#         397
  C:5153H         LINE#         398
  C:5166H         LINE#         399
  C:5176H         LINE#         400
  C:5176H         LINE#         401
  C:5176H         LINE#         402
BL51 BANKED LINKER/LOCATER V6.22                                                      05/17/2016  11:14:00  PAGE 48


  C:5179H         LINE#         403
  C:5179H         LINE#         404
  C:5182H         LINE#         405
  C:5189H         LINE#         406
  C:5189H         LINE#         407
  C:51A6H         LINE#         408
  C:51B6H         LINE#         409
  C:51B8H         LINE#         411
  C:51B8H         LINE#         412
  C:51CDH         LINE#         413
  C:51DFH         LINE#         414
  C:51EFH         LINE#         415
  C:51EFH         LINE#         416
  C:51F1H         LINE#         417
  C:51F1H         LINE#         418
  C:51F7H         LINE#         419
  C:51F7H         LINE#         420
  C:51F7H         LINE#         421
  C:51FAH         LINE#         422
  C:51FAH         LINE#         423
  C:51FAH         LINE#         424
  C:520BH         LINE#         425
  C:520BH         LINE#         427
  C:5215H         LINE#         428
  C:521AH         LINE#         430
  C:5224H         LINE#         431
  C:5229H         LINE#         433
  C:522CH         LINE#         434
  -------         ENDPROC       PROCALMDATA
  C:5A55H         SYMBOL        L?0576
  -------         PROC          PROCHISDATA
  -------         DO            
  D:0006H         SYMBOL        i
  -------         ENDDO         
  C:5881H         LINE#         450
  C:5881H         LINE#         451
  C:5881H         LINE#         452
  C:5881H         LINE#         454
  C:5884H         LINE#         456
  C:589AH         LINE#         457
  C:589AH         LINE#         458
  C:58A0H         LINE#         459
  C:58A0H         LINE#         460
  C:58A0H         LINE#         461
  C:58A3H         LINE#         462
  C:58A3H         LINE#         464
  C:58B5H         LINE#         465
  C:58B5H         LINE#         466
  C:58BBH         LINE#         467
  C:58BBH         LINE#         468
  C:58BBH         LINE#         469
  C:58BEH         LINE#         470
  C:58BEH         LINE#         472
  C:58D4H         LINE#         473
  C:58D4H         LINE#         474
  C:58DAH         LINE#         475
  C:58DAH         LINE#         476
BL51 BANKED LINKER/LOCATER V6.22                                                      05/17/2016  11:14:00  PAGE 49


  C:58DAH         LINE#         477
  C:58DDH         LINE#         478
  C:58DDH         LINE#         480
  C:58E0H         LINE#         482
  C:58E5H         LINE#         484
  C:58EDH         LINE#         485
  C:58FDH         LINE#         487
  C:58FFH         LINE#         488
  C:58FFH         LINE#         489
  C:5905H         LINE#         490
  C:5914H         LINE#         491
  C:5916H         LINE#         492
  C:5918H         LINE#         494
  C:5918H         LINE#         495
  C:5922H         LINE#         496
  C:592AH         LINE#         497
  C:592AH         LINE#         499
  C:593AH         LINE#         500
  C:593AH         LINE#         501
  C:594DH         LINE#         502
  C:5954H         LINE#         503
  C:595BH         LINE#         505
  C:596EH         LINE#         506
  C:596EH         LINE#         507
  C:597EH         LINE#         508
  C:598EH         LINE#         509
  C:599EH         LINE#         510
  C:59AEH         LINE#         511
  C:59BEH         LINE#         512
  C:59CDH         LINE#         513
  C:59DAH         LINE#         516
  C:59E2H         LINE#         517
  C:59EAH         LINE#         518
  C:59F2H         LINE#         519
  C:59F9H         LINE#         521
  C:5A02H         LINE#         522
  C:5A0CH         LINE#         524
  C:5A11H         LINE#         526
  C:5A21H         LINE#         527
  C:5A21H         LINE#         528
  C:5A27H         LINE#         529
  C:5A30H         LINE#         530
  C:5A32H         LINE#         532
  C:5A32H         LINE#         533
  C:5A37H         LINE#         534
  C:5A3FH         LINE#         535
  C:5A3FH         LINE#         536
  C:5A47H         LINE#         538
  C:5A4CH         LINE#         539
  C:5A51H         LINE#         541
  C:5A54H         LINE#         542
  -------         ENDPROC       PROCHISDATA
  C:1844H         SYMBOL        L?0473
  C:1862H         SYMBOL        L?0592
  -------         PROC          PROCCMD
  -------         DO            
  X:7B1AH         SYMBOL        TempLen
BL51 BANKED LINKER/LOCATER V6.22                                                      05/17/2016  11:14:00  PAGE 50


  -------         DO            
  X:7B1CH         SYMBOL        i
  -------         ENDDO         
  -------         DO            
  X:7B1CH         SYMBOL        i
  X:7B1EH         SYMBOL        usLineSp
  X:7B20H         SYMBOL        ucLastLineCode
  X:7B21H         SYMBOL        ucLineAlmNum
  X:7B22H         SYMBOL        ucLineCode
  X:7B1CH         SYMBOL        i
  X:7B1EH         SYMBOL        usLineSp
  X:7B20H         SYMBOL        ucLastLineCode
  X:7B21H         SYMBOL        ucLinePmNum
  X:7B22H         SYMBOL        ucLineCode
  -------         DO            
  X:7B23H         SYMBOL        ucAlmType
  -------         ENDDO         
  -------         DO            
  X:7B23H         SYMBOL        ucTemp
  X:7B24H         SYMBOL        ucAlmType
  X:7B25H         SYMBOL        ucAlmCode
  -------         ENDDO         
  -------         ENDDO         
  -------         DO            
  X:7B1CH         SYMBOL        i
  X:7B1EH         SYMBOL        usLineSp
  X:7B20H         SYMBOL        ucLastLineCode
  X:7B21H         SYMBOL        ucLinePmNum
  X:7B22H         SYMBOL        ucLineCode
  -------         ENDDO         
  -------         ENDDO         
  C:0F2CH         LINE#         562
  C:0F2CH         LINE#         563
  C:0F2CH         LINE#         564
  C:0F2CH         LINE#         566
  C:0F2FH         LINE#         568
  C:0F36H         LINE#         570
  C:0F39H         LINE#         571
  C:0F3CH         LINE#         572
  C:0F3EH         LINE#         573
  C:0F40H         LINE#         575
  C:0F51H         LINE#         576
  C:0F51H         LINE#         577
  C:0F58H         LINE#         578
  C:0F68H         LINE#         579
  C:0F6BH         LINE#         581
  C:0F6BH         LINE#         582
  C:0F70H         LINE#         584
  C:0F83H         LINE#         585
  C:0F83H         LINE#         586
  C:0F90H         LINE#         587
  C:0F90H         LINE#         588
  C:0F90H         LINE#         603
  C:0FA5H         LINE#         605
  C:0FA5H         LINE#         607
  C:0FADH         LINE#         608
  C:0FB5H         LINE#         610
BL51 BANKED LINKER/LOCATER V6.22                                                      05/17/2016  11:14:00  PAGE 51


  C:0FBEH         LINE#         612
  C:0FD2H         LINE#         614
  C:0FD2H         LINE#         617
  C:0FD5H         LINE#         619
  C:0FD5H         LINE#         622
  C:0FE3H         LINE#         623
  C:0FF0H         LINE#         625
  C:0FF8H         LINE#         626
  C:0FFCH         LINE#         627
  C:1005H         LINE#         628
  C:100DH         LINE#         630
  C:1016H         LINE#         632
  C:101AH         LINE#         633
  C:1026H         LINE#         634
  C:1031H         LINE#         636
  C:1039H         LINE#         638
  C:1041H         LINE#         640
  C:1049H         LINE#         642
  C:1056H         LINE#         644
  C:1060H         LINE#         645
  C:1062H         LINE#         647
  C:1062H         LINE#         648
  C:1065H         LINE#         649
  C:1065H         LINE#         650
  C:1065H         LINE#         651
  C:1079H         LINE#         652
  C:1079H         LINE#         653
  C:1085H         LINE#         654
  C:108BH         LINE#         655
  C:1098H         LINE#         656
  C:109EH         LINE#         657
  C:10A7H         LINE#         658
  C:10B3H         LINE#         660
  C:10B7H         LINE#         661
  C:10BDH         LINE#         663
  C:10CCH         LINE#         665
  C:10D4H         LINE#         666
  C:10D4H         LINE#         667
  C:10D6H         LINE#         668
  C:10DEH         LINE#         670
  C:10EDH         LINE#         671
  C:10EDH         LINE#         672
  C:10F3H         LINE#         673
  C:10F6H         LINE#         674
  C:10FFH         LINE#         675
  C:10FFH         LINE#         676
  C:1129H         LINE#         677
  C:1129H         LINE#         678
  C:1129H         LINE#         679
  C:1129H         LINE#         680
  C:1138H         LINE#         682
  C:1138H         LINE#         683
  C:1141H         LINE#         684
  C:1141H         LINE#         687
  C:1149H         LINE#         688
  C:1151H         LINE#         689
  C:1159H         LINE#         690
BL51 BANKED LINKER/LOCATER V6.22                                                      05/17/2016  11:14:00  PAGE 52


  C:1161H         LINE#         691
  C:116AH         LINE#         692
  C:1173H         LINE#         693
  C:117BH         LINE#         695
  C:1197H         LINE#         696
  C:119DH         LINE#         698
  C:11A0H         LINE#         699
  C:11A0H         LINE#         700
  C:11A0H         LINE#         701
  C:11A3H         LINE#         703
  C:11A3H         LINE#         704
  C:11B5H         LINE#         706
  C:11B5H         LINE#         708
  C:11BEH         LINE#         710
  C:11D1H         LINE#         711
  C:11D7H         LINE#         712
  C:11D7H         LINE#         713
  C:11DAH         LINE#         715
  C:11DAH         LINE#         716
  C:11E6H         LINE#         717
  C:11E8H         LINE#         718
  C:11EBH         LINE#         720
  C:11EBH         LINE#         721
  C:11FEH         LINE#         723
  C:11FEH         LINE#         726
  C:1203H         LINE#         728
  C:1225H         LINE#         730
  C:1225H         LINE#         731
  C:1225H         LINE#         733
  C:1225H         LINE#         734
  C:122FH         LINE#         736
  C:1232H         LINE#         737
  C:1232H         LINE#         738
  C:1235H         LINE#         739
  C:1238H         LINE#         741
  C:1238H         LINE#         742
  C:1247H         LINE#         743
  C:1247H         LINE#         749
  C:1250H         LINE#         750
  C:1250H         LINE#         751
  C:1250H         LINE#         752
  C:1250H         LINE#         753
  C:1250H         LINE#         755
  C:1250H         LINE#         757
  C:125EH         LINE#         758
  C:125EH         LINE#         761
  C:126EH         LINE#         762
  C:126EH         LINE#         763
  C:1281H         LINE#         764
  C:1287H         LINE#         765
  C:128CH         LINE#         766
  C:128CH         LINE#         767
  C:1291H         LINE#         768
  C:1291H         LINE#         769
  C:1294H         LINE#         770
  C:1297H         LINE#         771
  C:1297H         LINE#         773
BL51 BANKED LINKER/LOCATER V6.22                                                      05/17/2016  11:14:00  PAGE 53


  C:1297H         LINE#         774
  C:129FH         LINE#         775
  C:129FH         LINE#         776
  C:12A2H         LINE#         777
  C:12A2H         LINE#         779
  C:12AAH         LINE#         780
  C:12AAH         LINE#         781
  C:12ADH         LINE#         782
  C:12B0H         LINE#         783
  C:12B0H         LINE#         785
  C:12B0H         LINE#         786
  C:12B8H         LINE#         787
  C:12B8H         LINE#         789
  C:12BBH         LINE#         790
  C:12D0H         LINE#         791
  C:12E2H         LINE#         792
  C:12F1H         LINE#         793
  C:1302H         LINE#         794
  C:1302H         LINE#         795
  C:1302H         LINE#         796
  C:1309H         LINE#         797
  C:130BH         LINE#         798
  C:130BH         LINE#         799
  C:1312H         LINE#         800
  C:1314H         LINE#         801
  C:1314H         LINE#         802
  C:131BH         LINE#         803
  C:131DH         LINE#         804
  C:131DH         LINE#         805
  C:1324H         LINE#         806
  C:1324H         LINE#         807
  C:1324H         LINE#         808
  C:1329H         LINE#         809
  C:1329H         LINE#         810
  C:1334H         LINE#         812
  C:133BH         LINE#         813
  C:133BH         LINE#         814
  C:133EH         LINE#         815
  C:1344H         LINE#         816
  C:1347H         LINE#         817
  C:134AH         LINE#         818
  C:134DH         LINE#         820
  C:134DH         LINE#         821
  C:1353H         LINE#         822
  C:1353H         LINE#         823
  C:135BH         LINE#         824
  C:1362H         LINE#         825
  C:1365H         LINE#         827
  C:1365H         LINE#         828
  C:1365H         LINE#         829
  C:1365H         LINE#         830
  C:1365H         LINE#         832
  C:1365H         LINE#         834
  C:1373H         LINE#         835
  C:1373H         LINE#         838
  C:1379H         LINE#         839
  C:137EH         LINE#         840
BL51 BANKED LINKER/LOCATER V6.22                                                      05/17/2016  11:14:00  PAGE 54


  C:137EH         LINE#         841
  C:1383H         LINE#         842
  C:1383H         LINE#         843
  C:1383H         LINE#         844
  C:1383H         LINE#         845
  C:1383H         LINE#         847
  C:1383H         LINE#         848
  C:138BH         LINE#         849
  C:138BH         LINE#         850
  C:138EH         LINE#         851
  C:138EH         LINE#         853
  C:1398H         LINE#         854
  C:1398H         LINE#         855
  C:139DH         LINE#         856
  C:139DH         LINE#         857
  C:139DH         LINE#         859
  C:139DH         LINE#         860
  C:13A5H         LINE#         861
  C:13A5H         LINE#         863
  C:13AAH         LINE#         864
  C:13C0H         LINE#         865
  C:13CFH         LINE#         867
  C:13EDH         LINE#         868
  C:13EDH         LINE#         869
  C:1402H         LINE#         870
  C:1402H         LINE#         871
  C:1405H         LINE#         872
  C:1414H         LINE#         873
  C:141AH         LINE#         874
  C:1420H         LINE#         875
  C:142FH         LINE#         876
  C:1441H         LINE#         877
  C:144FH         LINE#         878
  C:1455H         LINE#         879
  C:1455H         LINE#         880
  C:1455H         LINE#         882
  C:1464H         LINE#         883
  C:1464H         LINE#         884
  C:1467H         LINE#         885
  C:1476H         LINE#         887
  C:148FH         LINE#         888
  C:1498H         LINE#         889
  C:14B6H         LINE#         890
  C:14B6H         LINE#         891
  C:14B6H         LINE#         892
  C:14C5H         LINE#         893
  C:14CBH         LINE#         894
  C:14D1H         LINE#         895
  C:14D4H         LINE#         897
  C:14D4H         LINE#         898
  C:14E3H         LINE#         899
  C:14E7H         LINE#         900
  C:14E7H         LINE#         901
  C:14EAH         LINE#         903
  C:14EAH         LINE#         904
  C:14EAH         LINE#         905
  C:14F8H         LINE#         906
BL51 BANKED LINKER/LOCATER V6.22                                                      05/17/2016  11:14:00  PAGE 55


  C:14F8H         LINE#         907
  C:14F8H         LINE#         908
  C:14FBH         LINE#         910
  C:14FBH         LINE#         911
  C:14FBH         LINE#         912
  C:1504H         LINE#         913
  C:150AH         LINE#         914
  C:150AH         LINE#         915
  C:150CH         LINE#         917
  C:150CH         LINE#         918
  C:1515H         LINE#         919
  C:1522H         LINE#         920
  C:1522H         LINE#         921
  C:1540H         LINE#         922
  C:154EH         LINE#         923
  C:1550H         LINE#         925
  C:1550H         LINE#         926
  C:155DH         LINE#         927
  C:156AH         LINE#         928
  C:156AH         LINE#         929
  C:156AH         LINE#         930
  C:156AH         LINE#         931
  C:1570H         LINE#         932
  C:1570H         LINE#         934
  C:1576H         LINE#         935
  C:1576H         LINE#         936
  C:1588H         LINE#         937
  C:1588H         LINE#         938
  C:1588H         LINE#         939
  C:158FH         LINE#         940
  C:1591H         LINE#         941
  C:1591H         LINE#         942
  C:1598H         LINE#         943
  C:159AH         LINE#         944
  C:159AH         LINE#         945
  C:15A1H         LINE#         946
  C:15A3H         LINE#         947
  C:15A3H         LINE#         948
  C:15AAH         LINE#         949
  C:15AAH         LINE#         950
  C:15AAH         LINE#         951
  C:15AAH         LINE#         953
  C:15AFH         LINE#         954
  C:15BAH         LINE#         956
  C:15C1H         LINE#         957
  C:15C1H         LINE#         958
  C:15C4H         LINE#         959
  C:15CAH         LINE#         960
  C:15CCH         LINE#         961
  C:15CFH         LINE#         963
  C:15CFH         LINE#         964
  C:15CFH         LINE#         965
  C:15CFH         LINE#         966
  C:15CFH         LINE#         967
  C:15D7H         LINE#         968
  C:15E3H         LINE#         969
  C:15E3H         LINE#         970
BL51 BANKED LINKER/LOCATER V6.22                                                      05/17/2016  11:14:00  PAGE 56


  C:15E3H         LINE#         972
  C:15ECH         LINE#         973
  C:15ECH         LINE#         974
  C:15F3H         LINE#         975
  C:15F5H         LINE#         976
  C:15F8H         LINE#         977
  C:1603H         LINE#         978
  C:1606H         LINE#         980
  C:1606H         LINE#         981
  C:1615H         LINE#         982
  C:1615H         LINE#         988
  C:1621H         LINE#         989
  C:1621H         LINE#         990
  C:1628H         LINE#         991
  C:1631H         LINE#         992
  C:1634H         LINE#         994
  C:1634H         LINE#         995
  C:1639H         LINE#         996
  C:1641H         LINE#         997
  C:164AH         LINE#         999
  C:164DH         LINE#         1001
  C:1658H         LINE#         1002
  C:1658H         LINE#         1003
  C:1684H         LINE#         1004
  C:1684H         LINE#         1005
  C:1694H         LINE#         1006
  C:1694H         LINE#         1007
  C:1697H         LINE#         1008
  C:169CH         LINE#         1009
  C:169CH         LINE#         1010
  C:16A1H         LINE#         1011
  C:16A1H         LINE#         1012
  C:16A4H         LINE#         1013
  C:16A7H         LINE#         1014
  C:16A7H         LINE#         1016
  C:16A7H         LINE#         1017
  C:16AFH         LINE#         1018
  C:16AFH         LINE#         1019
  C:16B2H         LINE#         1020
  C:16B2H         LINE#         1022
  C:16BAH         LINE#         1023
  C:16BAH         LINE#         1024
  C:16BDH         LINE#         1025
  C:16C1H         LINE#         1026
  C:16C1H         LINE#         1028
  C:16C1H         LINE#         1029
  C:16C9H         LINE#         1030
  C:16C9H         LINE#         1032
  C:16CCH         LINE#         1033
  C:16EDH         LINE#         1034
  C:16F3H         LINE#         1035
  C:16F3H         LINE#         1036
  C:1706H         LINE#         1037
  C:1709H         LINE#         1038
  C:170BH         LINE#         1040
  C:170BH         LINE#         1041
  C:1721H         LINE#         1042
BL51 BANKED LINKER/LOCATER V6.22                                                      05/17/2016  11:14:00  PAGE 57


  C:172FH         LINE#         1043
  C:172FH         LINE#         1044
  C:1736H         LINE#         1045
  C:1736H         LINE#         1046
  C:1736H         LINE#         1047
  C:173CH         LINE#         1048
  C:1747H         LINE#         1050
  C:174EH         LINE#         1051
  C:174EH         LINE#         1052
  C:1751H         LINE#         1053
  C:1757H         LINE#         1054
  C:1759H         LINE#         1055
  C:175CH         LINE#         1057
  C:1762H         LINE#         1058
  C:1762H         LINE#         1059
  C:1762H         LINE#         1060
  C:1762H         LINE#         1061
  C:1762H         LINE#         1062
  C:1762H         LINE#         1063
  C:176AH         LINE#         1064
  C:1776H         LINE#         1065
  C:1776H         LINE#         1066
  C:1776H         LINE#         1068
  C:177FH         LINE#         1069
  C:177FH         LINE#         1070
  C:1786H         LINE#         1071
  C:1788H         LINE#         1072
  C:178BH         LINE#         1073
  C:179AH         LINE#         1074
  C:179DH         LINE#         1076
  C:179DH         LINE#         1077
  C:17A7H         LINE#         1078
  C:17AAH         LINE#         1079
  C:17AAH         LINE#         1080
  C:17B1H         LINE#         1081
  C:17B3H         LINE#         1083
  C:17B3H         LINE#         1084
  C:17B9H         LINE#         1085
  C:17BDH         LINE#         1086
  C:17BFH         LINE#         1087
  C:17C2H         LINE#         1088
  C:17CAH         LINE#         1089
  C:17D2H         LINE#         1090
  C:17DAH         LINE#         1091
  C:17DEH         LINE#         1092
  C:17E0H         LINE#         1094
  C:17E0H         LINE#         1095
  C:17F1H         LINE#         1096
  C:17F3H         LINE#         1098
  C:17F3H         LINE#         1099
  C:17F3H         LINE#         1100
  C:17F3H         LINE#         1101
  C:17F3H         LINE#         1102
  C:17F5H         LINE#         1104
  C:17F5H         LINE#         1105
  C:17F8H         LINE#         1106
  C:17FBH         LINE#         1107
BL51 BANKED LINKER/LOCATER V6.22                                                      05/17/2016  11:14:00  PAGE 58


  C:17FBH         LINE#         1109
  C:1804H         LINE#         1111
  C:180CH         LINE#         1112
  C:1814H         LINE#         1113
  C:1825H         LINE#         1115
  C:182CH         LINE#         1116
  C:182CH         LINE#         1117
  C:1839H         LINE#         1118
  C:1840H         LINE#         1119
  C:1840H         LINE#         1120
  C:1840H         LINE#         1122
  C:1843H         LINE#         1123
  -------         ENDPROC       PROCCMD
  -------         ENDMOD        COMM

  -------         MODULE        DEBUG
  C:0000H         SYMBOL        _ICE_DUMMY_
  D:0090H         PUBLIC        P1
  D:00B0H         PUBLIC        P3
  D:00A5H         PUBLIC        P4
  D:00A8H         PUBLIC        IE
  X:7B78H         SYMBOL        g_RxFlag
  D:00C7H         PUBLIC        TA
  D:00B8H         PUBLIC        IP
  X:7B79H         SYMBOL        DebugMeFlag
  B:0023H.7       SYMBOL        JumpFlag
  B:0098H.0       PUBLIC        RI
  X:7B7AH         SYMBOL        EnterMM
  B:0098H.1       PUBLIC        TI
  X:7B7BH         SYMBOL        g_RxBuf
  D:0088H         PUBLIC        TCON
  X:7B9BH         SYMBOL        g_ulDispAddr
  X:7B9FH         SYMBOL        g_RxNum
  X:7BA0H         SYMBOL        g_TxNum
  B:0090H.0       PUBLIC        IO0
  C:715EH         SYMBOL        TxData
  B:0090H.1       PUBLIC        IO1
  B:0090H.2       PUBLIC        IO2
  B:0090H.3       PUBLIC        IO3
  B:0090H.4       PUBLIC        IO4
  B:0090H.5       PUBLIC        IO5
  B:0090H.6       PUBLIC        IO6
  B:0090H.7       PUBLIC        IO7
  C:6483H         PUBLIC        Scc2Intep
  D:00E8H         PUBLIC        EIE
  D:00F8H         PUBLIC        EIP
  D:0099H         PUBLIC        SBUF0
  C:6EDEH         PUBLIC        Scc2Init
  D:0098H         PUBLIC        SCON0
  D:00C0H         PUBLIC        SCON1
  D:00C8H         PUBLIC        T2CON
  C:186CH         PUBLIC        Debug
  D:00D0H         PUBLIC        PSW
  D:00D8H         PUBLIC        WDCON
  B:00D8H.0       PUBLIC        RWT
  C:60F1H         SYMBOL        Com007C
  C:60F1H         SYMBOL        L?0125
BL51 BANKED LINKER/LOCATER V6.22                                                      05/17/2016  11:14:00  PAGE 59


  C:60F4H         SYMBOL        L?0126
  C:60F8H         SYMBOL        L?0127
  C:60FEH         SYMBOL        L?0128
  C:6101H         SYMBOL        L?0129
  C:6109H         SYMBOL        L?0135
  C:610AH         SYMBOL        L?0136
  C:6112H         SYMBOL        L?0137
  C:6113H         SYMBOL        L?0138
  C:611AH         SYMBOL        L?0144
  C:6124H         SYMBOL        L?0145
  C:612BH         SYMBOL        L?0146
  C:6134H         SYMBOL        L?0149
  C:6135H         SYMBOL        L?0150
  C:613CH         SYMBOL        L?0151
  C:613CH         SYMBOL        L?0152
  C:6144H         SYMBOL        L?0153
  C:6144H         SYMBOL        L?0154
  C:6154H         SYMBOL        L?0159
  C:615CH         SYMBOL        L?0160
  C:6163H         SYMBOL        L?0161
  C:6168H         SYMBOL        L?0162
  C:6169H         SYMBOL        L?0163
  C:6171H         SYMBOL        L?0166
  C:6177H         SYMBOL        L?0167
  C:617EH         SYMBOL        L?0168
  C:618FH         SYMBOL        L?0169
  C:6193H         SYMBOL        L?0170
  C:619BH         SYMBOL        L?0173
  C:61A9H         SYMBOL        L?0174
  C:61AAH         SYMBOL        L?0175
  C:61B0H         SYMBOL        L?0179
  C:61B1H         SYMBOL        L?0180
  C:61B9H         SYMBOL        L?0181
  C:61C6H         SYMBOL        L?0183
  C:61D2H         SYMBOL        L?0184
  C:61DBH         SYMBOL        L?0185
  C:61DBH         SYMBOL        L?0186
  C:61E2H         SYMBOL        L?0187
  C:61E2H         SYMBOL        L?0188
  -------         PROC          COM007C
  -------         ENDPROC       COM007C
  -------         PROC          TXDATA
  C:715EH         LINE#         162
  C:715EH         LINE#         163
  C:715EH         LINE#         164
  C:7164H         LINE#         166
  C:716BH         LINE#         167
  C:716DH         LINE#         175
  -------         ENDPROC       TXDATA
  -------         PROC          SCC2INIT
  C:6EDEH         LINE#         32
  C:6EDEH         LINE#         33
  C:6EDEH         LINE#         147
  C:6EE3H         LINE#         148
  C:6EE9H         LINE#         149
  C:6EEEH         LINE#         150
  C:6EF2H         LINE#         151
BL51 BANKED LINKER/LOCATER V6.22                                                      05/17/2016  11:14:00  PAGE 60


  C:6EF4H         LINE#         152
  C:6EF6H         LINE#         153
  C:6EF8H         LINE#         155
  C:6EFEH         LINE#         158
  C:6F0CH         LINE#         159
  C:6F0CH         LINE#         160
  C:6F13H         LINE#         162
  C:6F18H         LINE#         163
  C:6F1EH         LINE#         164
  C:6F1EH         LINE#         165
  C:6F21H         LINE#         166
  C:6F21H         LINE#         173
  -------         ENDPROC       SCC2INIT
  -------         PROC          SCC2INTEP
  -------         DO            
  D:0017H         SYMBOL        cTemp
  D:001FH         SYMBOL        outEn
  -------         ENDDO         
  C:6483H         LINE#         190
  C:6499H         LINE#         196
  C:649CH         LINE#         197
  C:649CH         LINE#         198
  C:649EH         LINE#         200
  C:64A4H         LINE#         201
  C:64A4H         LINE#         202
  C:64A9H         LINE#         203
  C:64B9H         LINE#         205
  C:64BCH         LINE#         206
  C:64BCH         LINE#         207
  C:64C2H         LINE#         208
  C:64C7H         LINE#         209
  C:64C9H         LINE#         210
  C:64D0H         LINE#         211
  C:64D8H         LINE#         212
  C:64E6H         LINE#         213
  C:64E8H         LINE#         215
  C:6503H         LINE#         216
  C:6503H         LINE#         217
  C:6505H         LINE#         218
  C:6508H         LINE#         219
  C:6508H         LINE#         220
  C:6508H         LINE#         221
  C:650AH         LINE#         223
  C:650AH         LINE#         224
  C:650CH         LINE#         225
  C:6510H         LINE#         226
  C:6510H         LINE#         227
  C:6523H         LINE#         228
  C:6523H         LINE#         229
  C:6532H         LINE#         230
  C:6532H         LINE#         231
  C:6534H         LINE#         232
  C:6537H         LINE#         233
  C:6537H         LINE#         234
  -------         ENDPROC       SCC2INTEP
  C:2004H         SYMBOL        L?0122
  C:202AH         SYMBOL        L?0123
BL51 BANKED LINKER/LOCATER V6.22                                                      05/17/2016  11:14:00  PAGE 61


  C:2074H         SYMBOL        L?0130
  C:207EH         SYMBOL        L?0131
  C:2088H         SYMBOL        L?0132
  C:209CH         SYMBOL        L?0133
  C:20A6H         SYMBOL        L?0134
  C:20B0H         SYMBOL        L?0139
  C:20BAH         SYMBOL        L?0140
  C:20CEH         SYMBOL        L?0141
  C:20D8H         SYMBOL        L?0142
  C:20E2H         SYMBOL        L?0143
  C:20F6H         SYMBOL        L?0147
  C:2100H         SYMBOL        L?0148
  C:210AH         SYMBOL        L?0155
  C:2118H         SYMBOL        L?0156
  C:212CH         SYMBOL        L?0157
  C:2138H         SYMBOL        L?0158
  C:2142H         SYMBOL        L?0164
  C:214BH         SYMBOL        L?0165
  C:2155H         SYMBOL        L?0171
  C:2161H         SYMBOL        L?0172
  C:2171H         SYMBOL        L?0176
  C:217AH         SYMBOL        L?0177
  C:2183H         SYMBOL        L?0178
  C:218CH         SYMBOL        L?0182
  -------         PROC          DEBUG
  -------         DO            
  X:7B3AH         SYMBOL        usTemp
  -------         DO            
  X:7B3CH         SYMBOL        i
  X:7B3EH         SYMBOL        start
  X:7B40H         SYMBOL        end
  X:7B42H         SYMBOL        mem
  -------         ENDDO         
  -------         DO            
  X:7B3CH         SYMBOL        ucIC
  -------         ENDDO         
  -------         ENDDO         
  C:186CH         LINE#         317
  C:186CH         LINE#         318
  C:186CH         LINE#         319
  C:186CH         LINE#         321
  C:1874H         LINE#         323
  C:187DH         LINE#         324
  C:187DH         LINE#         326
  C:187DH         LINE#         328
  C:1882H         LINE#         330
  C:188FH         LINE#         331
  C:188FH         LINE#         332
  C:18A0H         LINE#         333
  C:18A0H         LINE#         334
  C:18A9H         LINE#         335
  C:18A9H         LINE#         337
  C:18B2H         LINE#         342
  C:18B2H         LINE#         343
  C:18B2H         LINE#         344
  C:18B5H         LINE#         346
  C:18B5H         LINE#         347
BL51 BANKED LINKER/LOCATER V6.22                                                      05/17/2016  11:14:00  PAGE 62


  C:18D7H         LINE#         348
  C:18E1H         LINE#         349
  C:18E1H         LINE#         350
  C:18E2H         LINE#         351
  C:18E2H         LINE#         352
  C:18E2H         LINE#         353
  C:18E5H         LINE#         355
  C:18E5H         LINE#         356
  C:18EAH         LINE#         358
  C:18EAH         LINE#         359
  C:18EDH         LINE#         361
  C:18F3H         LINE#         366
  C:18F3H         LINE#         367
  C:18F3H         LINE#         368
  C:18F6H         LINE#         370
  C:18F6H         LINE#         371
  C:18FFH         LINE#         373
  C:1902H         LINE#         374
  C:1902H         LINE#         375
  C:1904H         LINE#         377
  C:1910H         LINE#         378
  C:1910H         LINE#         379
  C:1915H         LINE#         380
  C:191FH         LINE#         381
  C:1922H         LINE#         382
  C:1925H         LINE#         384
  C:1925H         LINE#         387
  C:1933H         LINE#         392
  C:1933H         LINE#         394
  C:1936H         LINE#         397
  C:1936H         LINE#         399
  C:193FH         LINE#         400
  C:193FH         LINE#         402
  C:1944H         LINE#         403
  C:1944H         LINE#         404
  C:1949H         LINE#         406
  C:194FH         LINE#         411
  C:1952H         LINE#         413
  C:1952H         LINE#         415
  C:195BH         LINE#         416
  C:195BH         LINE#         418
  C:1975H         LINE#         419
  C:197CH         LINE#         420
  C:1998H         LINE#         423
  C:19AFH         LINE#         429
  C:19AFH         LINE#         432
  C:19C0H         LINE#         435
  C:19C0H         LINE#         436
  C:19C0H         LINE#         438
  C:19CCH         LINE#         447
  C:19CFH         LINE#         449
  C:19CFH         LINE#         451
  C:19D6H         LINE#         452
  C:19D6H         LINE#         454
  C:19DFH         LINE#         459
  C:19E2H         LINE#         461
  C:19E2H         LINE#         463
BL51 BANKED LINKER/LOCATER V6.22                                                      05/17/2016  11:14:00  PAGE 63


  C:19F2H         LINE#         464
  C:19F2H         LINE#         471
  C:1A0BH         LINE#         472
  C:1A0BH         LINE#         473
  C:1A16H         LINE#         474
  C:1A19H         LINE#         476
  C:1A19H         LINE#         478
  C:1A30H         LINE#         479
  C:1A37H         LINE#         480
  C:1A64H         LINE#         482
  C:1A64H         LINE#         483
  C:1A64H         LINE#         484
  C:1A64H         LINE#         485
  C:1A67H         LINE#         488
  C:1A6EH         LINE#         489
  C:1A75H         LINE#         491
  C:1A83H         LINE#         494
  C:1A92H         LINE#         496
  C:1AABH         LINE#         498
  C:1ABEH         LINE#         499
  C:1AC0H         LINE#         500
  C:1AC0H         LINE#         501
  C:1ADFH         LINE#         502
  C:1AF6H         LINE#         503
  C:1B24H         LINE#         504
  C:1B24H         LINE#         506
  C:1B3FH         LINE#         507
  C:1B3FH         LINE#         508
  C:1B4BH         LINE#         510
  C:1B67H         LINE#         512
  C:1B74H         LINE#         513
  C:1B74H         LINE#         514
  C:1B7AH         LINE#         515
  C:1B7DH         LINE#         516
  C:1B86H         LINE#         517
  C:1B86H         LINE#         518
  C:1B8CH         LINE#         519
  C:1B8CH         LINE#         520
  C:1B9BH         LINE#         521
  C:1BA5H         LINE#         522
  C:1BA5H         LINE#         523
  C:1BBDH         LINE#         524
  C:1BBDH         LINE#         525
  C:1BBDH         LINE#         526
  C:1BCAH         LINE#         527
  C:1BDBH         LINE#         528
  C:1BE4H         LINE#         529
  C:1BE4H         LINE#         597
  C:1BE7H         LINE#         599
  C:1BE7H         LINE#         601
  C:1BF7H         LINE#         602
  C:1BF7H         LINE#         604
  C:1C15H         LINE#         606
  C:1C15H         LINE#         607
  C:1C24H         LINE#         608
  C:1C27H         LINE#         610
  C:1C27H         LINE#         611
BL51 BANKED LINKER/LOCATER V6.22                                                      05/17/2016  11:14:00  PAGE 64


  C:1C44H         LINE#         612
  C:1C50H         LINE#         613
  C:1CA0H         LINE#         615
  C:1CA0H         LINE#         616
  C:1CA0H         LINE#         617
  C:1CA0H         LINE#         618
  C:1CA3H         LINE#         621
  C:1CA3H         LINE#         622
  C:1CA3H         LINE#         624
  C:1CB2H         LINE#         627
  C:1CB8H         LINE#         628
  C:1CB8H         LINE#         661
  C:1CBBH         LINE#         663
  C:1CBBH         LINE#         665
  C:1CCBH         LINE#         666
  C:1CCBH         LINE#         667
  C:1CEBH         LINE#         668
  C:1D0EH         LINE#         669
  C:1D31H         LINE#         674
  C:1D5CH         LINE#         677
  C:1D62H         LINE#         683
  C:1D65H         LINE#         685
  C:1D65H         LINE#         687
  C:1D75H         LINE#         688
  C:1D75H         LINE#         689
  C:1D8CH         LINE#         690
  C:1D8CH         LINE#         693
  C:1D9CH         LINE#         699
  C:1D9FH         LINE#         701
  C:1D9FH         LINE#         702
  C:1DA6H         LINE#         705
  C:1DABH         LINE#         707
  C:1DE7H         LINE#         708
  C:1DE7H         LINE#         709
  C:1DE7H         LINE#         711
  C:1DEEH         LINE#         718
  C:1DF1H         LINE#         719
  C:1DF1H         LINE#         721
  C:1DF8H         LINE#         728
  C:1DFBH         LINE#         729
  C:1DFBH         LINE#         731
  C:1E02H         LINE#         738
  C:1E05H         LINE#         739
  C:1E05H         LINE#         741
  C:1E0CH         LINE#         748
  C:1E0FH         LINE#         749
  C:1E0FH         LINE#         751
  C:1E16H         LINE#         758
  C:1E19H         LINE#         759
  C:1E19H         LINE#         761
  C:1E20H         LINE#         768
  C:1E23H         LINE#         769
  C:1E23H         LINE#         771
  C:1E2AH         LINE#         778
  C:1E2DH         LINE#         779
  C:1E2DH         LINE#         781
  C:1E34H         LINE#         788
BL51 BANKED LINKER/LOCATER V6.22                                                      05/17/2016  11:14:00  PAGE 65


  C:1E37H         LINE#         789
  C:1E37H         LINE#         791
  C:1E3EH         LINE#         792
  C:1E3EH         LINE#         799
  C:1E40H         LINE#         802
  C:1E40H         LINE#         803
  C:1E47H         LINE#         804
  C:1E47H         LINE#         805
  C:1E49H         LINE#         806
  C:1E49H         LINE#         807
  C:1E50H         LINE#         808
  C:1E50H         LINE#         809
  C:1E52H         LINE#         810
  C:1E52H         LINE#         811
  C:1E59H         LINE#         812
  C:1E59H         LINE#         813
  C:1E5BH         LINE#         814
  C:1E5BH         LINE#         815
  C:1E62H         LINE#         816
  C:1E62H         LINE#         817
  C:1E64H         LINE#         818
  C:1E64H         LINE#         819
  C:1E6BH         LINE#         820
  C:1E71H         LINE#         821
  C:1E73H         LINE#         824
  C:1E73H         LINE#         827
  C:1E86H         LINE#         833
  C:1E86H         LINE#         835
  C:1E8BH         LINE#         837
  C:1E8BH         LINE#         840
  C:1E94H         LINE#         845
  C:1E97H         LINE#         847
  C:1E97H         LINE#         849
  C:1EA4H         LINE#         850
  C:1EA4H         LINE#         852
  C:1EAAH         LINE#         853
  C:1EB1H         LINE#         854
  C:1EB8H         LINE#         855
  C:1EC5H         LINE#         865
  C:1EE8H         LINE#         870
  C:1EEBH         LINE#         872
  C:1EEBH         LINE#         874
  C:1EF8H         LINE#         875
  C:1EF8H         LINE#         876
  C:1EFCH         LINE#         877
  C:1EFEH         LINE#         879
  C:1F04H         LINE#         881
  C:1F04H         LINE#         883
  C:1F1EH         LINE#         884
  C:1F1EH         LINE#         885
  C:1F21H         LINE#         887
  C:1F21H         LINE#         889
  C:1F3BH         LINE#         890
  C:1F3BH         LINE#         891
  C:1F43H         LINE#         892
  C:1F43H         LINE#         894
  C:1F4CH         LINE#         899
BL51 BANKED LINKER/LOCATER V6.22                                                      05/17/2016  11:14:00  PAGE 66


  C:1F4EH         LINE#         901
  C:1F56H         LINE#         902
  C:1F56H         LINE#         903
  C:1F67H         LINE#         910
  C:1F69H         LINE#         911
  C:1F6BH         LINE#         913
  C:1F7BH         LINE#         916
  C:1F7EH         LINE#         918
  C:1F7EH         LINE#         1059
  C:1F8BH         LINE#         1060
  C:1F8BH         LINE#         1061
  C:1F95H         LINE#         1062
  C:1F95H         LINE#         1063
  C:1F95H         LINE#         1064
  C:1F97H         LINE#         1066
  C:1F97H         LINE#         1069
  C:1FA4H         LINE#         1070
  C:1FABH         LINE#         1071
  C:1FABH         LINE#         1072
  C:1FB4H         LINE#         1073
  C:1FB6H         LINE#         1075
  C:1FB6H         LINE#         1080
  C:1FE3H         LINE#         1082
  C:1FE3H         LINE#         1083
  C:1FE3H         LINE#         1085
  C:1FEFH         LINE#         1090
  C:1FF1H         LINE#         1092
  C:1FF1H         LINE#         1095
  C:2000H         LINE#         1100
  C:2003H         LINE#         1102
  -------         ENDPROC       DEBUG
  -------         ENDMOD        DEBUG

  -------         MODULE        HDLC
  C:0000H         SYMBOL        _ICE_DUMMY_
  D:0090H         PUBLIC        P1
  D:00B0H         PUBLIC        P3
  D:00A8H         PUBLIC        IE
  C:5670H         SYMBOL        HdlcOK
  C:5DE6H         PUBLIC        Scc1Tx
  D:00B8H         PUBLIC        IP
  X:7BB2H         PUBLIC        g_usRxDataLen
  X:7BB4H         PUBLIC        g_usTxPosi
  X:7BB6H         PUBLIC        g_stuHinfo
  C:700AH         PUBLIC        HdlcErr
  X:7BBBH         PUBLIC        g_Scc1ActFlag
  D:0088H         PUBLIC        TCON
  X:0000H         PUBLIC        g_ucHdlcBuf
  B:00A8H.0       PUBLIC        EX0
  B:0088H.0       PUBLIC        IT0
  B:00A8H.2       PUBLIC        EX1
  B:0088H.2       PUBLIC        IT1
  D:00E8H         PUBLIC        EIE
  X:7BBCH         PUBLIC        g_CommState
  D:00F8H         PUBLIC        EIP
  C:6D81H         PUBLIC        Scc1Init
  C:716EH         PUBLIC        Scc1HardInit
BL51 BANKED LINKER/LOCATER V6.22                                                      05/17/2016  11:14:00  PAGE 67


  D:0098H         PUBLIC        SCON0
  D:00C0H         PUBLIC        SCON1
  D:00C8H         PUBLIC        T2CON
  X:7BBDH         PUBLIC        g_usScc1RxLen
  X:7BBFH         PUBLIC        g_usScc1TxLen
  D:00D0H         PUBLIC        PSW
  D:00D8H         PUBLIC        WDCON
  C:68E0H         SYMBOL        Com003E
  C:68E0H         SYMBOL        L?0063
  C:68FBH         SYMBOL        L?0064
  C:6904H         SYMBOL        L?0065
  C:6904H         SYMBOL        L?0066
  C:6908H         SYMBOL        L?0067
  C:6913H         SYMBOL        L?0068
  C:6935H         SYMBOL        L?0069
  C:6935H         SYMBOL        L?0070
  C:693CH         SYMBOL        L?0071
  C:6951H         SYMBOL        L?0072
  C:6963H         SYMBOL        L?0073
  C:6972H         SYMBOL        L?0074
  C:6980H         SYMBOL        L?0075
  C:6980H         SYMBOL        L?0076
  -------         PROC          COM003E
  -------         ENDPROC       COM003E
  -------         PROC          HDLCOK
  C:5670H         LINE#         31
  C:5696H         LINE#         33
  C:569BH         LINE#         34
  C:56A0H         LINE#         39
  C:56A7H         LINE#         41
  C:56A7H         LINE#         42
  C:56ADH         LINE#         43
  C:56ADH         LINE#         45
  C:56B0H         LINE#         47
  C:56B0H         LINE#         49
  C:56B7H         LINE#         50
  C:56B7H         LINE#         51
  C:56BBH         LINE#         52
  C:56C8H         LINE#         53
  C:56D6H         LINE#         55
  C:56D9H         LINE#         57
  C:56D9H         LINE#         58
  C:56DCH         LINE#         60
  C:56DCH         LINE#         61
  C:56F3H         LINE#         62
  C:56F3H         LINE#         63
  C:56F3H         LINE#         64
  C:56FAH         LINE#         65
  C:56FAH         LINE#         66
  C:56FDH         LINE#         67
  C:5704H         LINE#         68
  C:5704H         LINE#         69
  C:5707H         LINE#         71
  C:5707H         LINE#         72
  C:5726H         LINE#         73
  C:5726H         LINE#         74
  C:5729H         LINE#         75
BL51 BANKED LINKER/LOCATER V6.22                                                      05/17/2016  11:14:00  PAGE 68


  C:5729H         LINE#         113
  C:5730H         LINE#         114
  C:5730H         LINE#         115
  C:574BH         LINE#         116
  C:575BH         LINE#         117
  C:575BH         LINE#         118
  C:575EH         LINE#         119
  C:5761H         LINE#         120
  C:5761H         LINE#         121
  C:5764H         LINE#         123
  C:5764H         LINE#         124
  C:5767H         LINE#         125
  C:576AH         LINE#         126
  C:576AH         LINE#         127
  C:576AH         LINE#         128
  C:576AH         LINE#         129
  C:576AH         LINE#         130
  C:576DH         LINE#         132
  C:576DH         LINE#         133
  C:576DH         LINE#         134
  C:5778H         LINE#         135
  C:5780H         LINE#         136
  C:5780H         LINE#         137
  C:5783H         LINE#         138
  C:5786H         LINE#         139
  C:5786H         LINE#         140
  C:5789H         LINE#         142
  C:5789H         LINE#         143
  C:5794H         LINE#         144
  C:579AH         LINE#         145
  C:579AH         LINE#         146
  C:579AH         LINE#         147
  C:579AH         LINE#         148
  C:579AH         LINE#         149
  C:579AH         LINE#         150
  C:579AH         LINE#         151
  C:579AH         LINE#         153
  C:579AH         LINE#         154
  C:579DH         LINE#         157
  C:579DH         LINE#         158
  C:57A4H         LINE#         159
  C:57A4H         LINE#         160
  C:57A7H         LINE#         161
  C:57AEH         LINE#         162
  C:57AEH         LINE#         163
  C:57B1H         LINE#         165
  C:57B1H         LINE#         166
  C:57B1H         LINE#         167
  C:57CAH         LINE#         168
  C:57CAH         LINE#         169
  C:57CDH         LINE#         170
  C:57D3H         LINE#         171
  C:57D3H         LINE#         172
  C:57D6H         LINE#         174
  C:57D6H         LINE#         175
  C:57E6H         LINE#         176
  C:57F5H         LINE#         208
BL51 BANKED LINKER/LOCATER V6.22                                                      05/17/2016  11:14:00  PAGE 69


  C:57FCH         LINE#         209
  C:57FCH         LINE#         210
  C:57FFH         LINE#         211
  C:581AH         LINE#         212
  C:581AH         LINE#         213
  C:581DH         LINE#         214
  C:5823H         LINE#         215
  C:5823H         LINE#         216
  C:5825H         LINE#         218
  C:5825H         LINE#         219
  C:5828H         LINE#         220
  C:582FH         LINE#         221
  C:582FH         LINE#         222
  C:582FH         LINE#         223
  C:5831H         LINE#         225
  C:5831H         LINE#         226
  C:5833H         LINE#         227
  C:5833H         LINE#         228
  C:5833H         LINE#         229
  C:5836H         LINE#         230
  C:5836H         LINE#         231
  C:5836H         LINE#         233
  C:5836H         LINE#         234
  C:5836H         LINE#         235
  C:5838H         LINE#         238
  C:5838H         LINE#         242
  C:583FH         LINE#         244
  C:583FH         LINE#         245
  C:5842H         LINE#         246
  C:5849H         LINE#         247
  C:584FH         LINE#         248
  C:5851H         LINE#         249
  C:5854H         LINE#         250
  C:5856H         LINE#         292
  C:5856H         LINE#         293
  C:585BH         LINE#         294
  C:5860H         LINE#         295
  C:5860H         LINE#         296
  C:5860H         LINE#         297
  -------         ENDPROC       HDLCOK
  -------         PROC          HDLCERR
  C:700AH         LINE#         590
  C:7019H         LINE#         592
  C:701EH         LINE#         593
  C:7020H         LINE#         594
  C:7020H         LINE#         595
  C:7020H         LINE#         596
  C:7023H         LINE#         597
  C:7028H         LINE#         598
  C:702FH         LINE#         599
  C:7032H         LINE#         600
  -------         ENDPROC       HDLCERR
  -------         PROC          SCC1HARDINIT
  C:716EH         LINE#         617
  C:716EH         LINE#         618
  C:716EH         LINE#         620
  C:7173H         LINE#         621
BL51 BANKED LINKER/LOCATER V6.22                                                      05/17/2016  11:14:00  PAGE 70


  C:7175H         LINE#         622
  C:7177H         LINE#         624
  C:7179H         LINE#         625
  C:717BH         LINE#         626
  C:717DH         LINE#         739
  -------         ENDPROC       SCC1HARDINIT
  -------         PROC          SCC1INIT
  C:6D81H         LINE#         755
  C:6D81H         LINE#         756
  C:6D81H         LINE#         759
  C:6D88H         LINE#         760
  C:6D8CH         LINE#         761
  C:6D92H         LINE#         762
  C:6D96H         LINE#         763
  C:6D9CH         LINE#         765
  C:6DA0H         LINE#         768
  C:6DA4H         LINE#         769
  C:6DA8H         LINE#         770
  C:6DACH         LINE#         771
  C:6DB0H         LINE#         772
  C:6DB2H         LINE#         774
  C:6DBFH         LINE#         775
  C:6DCEH         LINE#         776
  -------         ENDPROC       SCC1INIT
  -------         PROC          SCC1TX
  -------         DO            
  X:7B1AH         SYMBOL        uTemp
  D:0018H         SYMBOL        usTemp
  -------         ENDDO         
  C:5DE6H         LINE#         793
  C:5DE6H         LINE#         794
  C:5DE6H         LINE#         804
  C:5DF1H         LINE#         805
  C:5DF1H         LINE#         806
  C:5DF5H         LINE#         808
  C:5DFAH         LINE#         810
  C:5DFBH         LINE#         811
  C:5E04H         LINE#         812
  C:5E04H         LINE#         813
  C:5E0AH         LINE#         816
  C:5E10H         LINE#         820
  C:5E14H         LINE#         823
  C:5E1EH         LINE#         824
  C:5E21H         LINE#         825
  C:5E24H         LINE#         827
  C:5E2AH         LINE#         828
  C:5E31H         LINE#         829
  C:5E52H         LINE#         831
  C:5E60H         LINE#         832
  C:5E6EH         LINE#         833
  C:5E74H         LINE#         854
  C:5E75H         LINE#         856
  C:5E75H         LINE#         860
  C:5E7AH         LINE#         864
  C:5E8AH         LINE#         865
  C:5E98H         LINE#         870
  C:5EAEH         LINE#         873
BL51 BANKED LINKER/LOCATER V6.22                                                      05/17/2016  11:14:00  PAGE 71


  C:5EBDH         LINE#         874
  C:5EBDH         LINE#         875
  C:5EC0H         LINE#         877
  C:5EDCH         LINE#         878
  C:5EF0H         LINE#         879
  C:5EF6H         LINE#         896
  C:5EFDH         LINE#         897
  C:5EFDH         LINE#         898
  -------         ENDPROC       SCC1TX
  -------         ENDMOD        HDLC

  -------         MODULE        ?C_STARTUP
  C:66C5H         SEGMENT       ?C_C51STARTUP
  I:0024H         SEGMENT       ?STACK
  C:0000H         PUBLIC        ?C_STARTUP
  B:00D0H.6       SYMBOL        AC
  D:00E0H         SYMBOL        ACC
  D:00F0H         SYMBOL        B
  D:008EH         SYMBOL        CKCON
  B:00C8H.0       SYMBOL        CP_RL2
  B:00D0H.7       SYMBOL        CY
  B:00C8H.1       SYMBOL        C_T2
  D:0083H         SYMBOL        DPH
  D:0085H         SYMBOL        DPH1
  D:0082H         SYMBOL        DPL
  D:0084H         SYMBOL        DPL1
  D:0086H         SYMBOL        DPS
  B:00A8H.7       SYMBOL        EA
  D:00E8H         SYMBOL        EIE
  D:00F8H         SYMBOL        EIP
  B:00D8H.5       SYMBOL        EPFI
  B:00A8H.4       SYMBOL        ES0
  B:00A8H.6       SYMBOL        ES1
  B:00A8H.1       SYMBOL        ET0
  B:00A8H.3       SYMBOL        ET1
  B:00A8H.5       SYMBOL        ET2
  B:00E8H.4       SYMBOL        EWDI
  B:00D8H.1       SYMBOL        EWT
  B:00A8H.0       SYMBOL        EX0
  B:00A8H.2       SYMBOL        EX1
  B:00E8H.0       SYMBOL        EX2
  B:00E8H.1       SYMBOL        EX3
  B:00E8H.2       SYMBOL        EX4
  B:00E8H.3       SYMBOL        EX5
  B:00C8H.3       SYMBOL        EXEN2
  B:00C8H.6       SYMBOL        EXF2
  D:0091H         SYMBOL        EXIF
  B:00D0H.5       SYMBOL        F0
  B:00D0H.1       SYMBOL        FL
  N:0000H         SYMBOL        IBPSTACK
  N:0100H         SYMBOL        IBPSTACKTOP
  N:0100H         SYMBOL        IDATALEN
  C:66C8H         SYMBOL        IDATALOOP
  D:00A8H         SYMBOL        IE
  B:0088H.1       SYMBOL        IE0
  B:0088H.3       SYMBOL        IE1
  B:00B0H.2       SYMBOL        INT0
BL51 BANKED LINKER/LOCATER V6.22                                                      05/17/2016  11:14:00  PAGE 72


  B:00B0H.3       SYMBOL        INT1
  B:0090H.4       SYMBOL        INT2
  B:0090H.5       SYMBOL        INT3
  B:0090H.6       SYMBOL        INT4
  B:0090H.7       SYMBOL        INT5
  D:00B8H         SYMBOL        IP
  B:0088H.0       SYMBOL        IT0
  B:0088H.2       SYMBOL        IT1
  B:00D0H.2       SYMBOL        OV
  B:00D0H.0       SYMBOL        P
  D:0080H         SYMBOL        P0
  D:0090H         SYMBOL        P1
  D:00A0H         SYMBOL        P2
  D:00B0H         SYMBOL        P3
  N:0000H         SYMBOL        PBPSTACK
  N:0000H         SYMBOL        PBPSTACKTOP
  D:0087H         SYMBOL        PCON
  N:0000H         SYMBOL        PDATALEN
  N:0000H         SYMBOL        PDATASTART
  B:00D8H.4       SYMBOL        PFI
  B:00D8H.6       SYMBOL        POR
  N:0000H         SYMBOL        PPAGE
  N:0000H         SYMBOL        PPAGEENABLE
  B:00B8H.4       SYMBOL        PS0
  B:00B8H.6       SYMBOL        PS1
  D:00D0H         SYMBOL        PSW
  B:00B8H.1       SYMBOL        PT0
  B:00B8H.3       SYMBOL        PT1
  B:00B8H.5       SYMBOL        PT2
  B:00F8H.4       SYMBOL        PWDI
  B:00B8H.0       SYMBOL        PX0
  B:00B8H.2       SYMBOL        PX1
  B:00F8H.0       SYMBOL        PX2
  B:00F8H.1       SYMBOL        PX3
  B:00F8H.2       SYMBOL        PX4
  B:00F8H.3       SYMBOL        PX5
  B:0098H.2       SYMBOL        RB8
  B:00C0H.2       SYMBOL        RB81
  D:00CBH         SYMBOL        RCAP2H
  D:00CAH         SYMBOL        RCAP2L
  B:00C8H.5       SYMBOL        RCLK
  B:00B0H.7       SYMBOL        RD
  B:0098H.4       SYMBOL        REN
  B:00C0H.4       SYMBOL        REN1
  B:0098H.0       SYMBOL        RI
  B:00C0H.0       SYMBOL        RI1
  B:00D0H.3       SYMBOL        RS0
  B:00D0H.4       SYMBOL        RS1
  B:00D8H.0       SYMBOL        RWT
  B:00B0H.0       SYMBOL        RXD0
  B:0090H.2       SYMBOL        RXD1
  D:00A9H         SYMBOL        SADDR0
  D:00AAH         SYMBOL        SADDR1
  D:00B9H         SYMBOL        SADEN0
  D:00BAH         SYMBOL        SADEN1
  D:0099H         SYMBOL        SBUF0
  D:00C1H         SYMBOL        SBUF1
BL51 BANKED LINKER/LOCATER V6.22                                                      05/17/2016  11:14:00  PAGE 73


  D:0098H         SYMBOL        SCON0
  D:00C0H         SYMBOL        SCON1
  B:0098H.7       SYMBOL        SM0
  B:00C0H.7       SYMBOL        SM01
  B:0098H.6       SYMBOL        SM1
  B:00C0H.6       SYMBOL        SM11
  B:0098H.5       SYMBOL        SM2
  B:00C0H.5       SYMBOL        SM21
  B:00D8H.7       SYMBOL        SMOD
  D:0081H         SYMBOL        SP
  C:66C5H         SYMBOL        STARTUP1
  D:00C5H         SYMBOL        STATUS
  B:00B0H.4       SYMBOL        T0
  B:00B0H.5       SYMBOL        T1
  B:0090H.0       SYMBOL        T2
  D:00C8H         SYMBOL        T2CON
  B:0090H.1       SYMBOL        T2EX
  D:00C9H         SYMBOL        T2MOD
  D:00C7H         SYMBOL        TA
  B:0098H.3       SYMBOL        TB8
  B:00C0H.3       SYMBOL        TB81
  B:00C8H.4       SYMBOL        TCLK
  D:0088H         SYMBOL        TCON
  B:0088H.5       SYMBOL        TF0
  B:0088H.7       SYMBOL        TF1
  B:00C8H.7       SYMBOL        TF2
  D:008CH         SYMBOL        TH0
  D:008DH         SYMBOL        TH1
  D:00CDH         SYMBOL        TH2
  B:0098H.1       SYMBOL        TI
  B:00C0H.1       SYMBOL        TI1
  D:008AH         SYMBOL        TL0
  D:008BH         SYMBOL        TL1
  D:00CCH         SYMBOL        TL2
  D:0089H         SYMBOL        TMOD
  B:0088H.4       SYMBOL        TR0
  B:0088H.6       SYMBOL        TR1
  B:00C8H.2       SYMBOL        TR2
  B:00B0H.1       SYMBOL        TXD0
  B:0090H.3       SYMBOL        TXD1
  D:00D8H         SYMBOL        WDCON
  B:00D8H.3       SYMBOL        WDIF
  B:00D8H.2       SYMBOL        WDRF
  B:00B0H.6       SYMBOL        WR
  N:0000H         SYMBOL        XBPSTACK
  N:0000H         SYMBOL        XBPSTACKTOP
  N:0000H         SYMBOL        XDATALEN
  N:0000H         SYMBOL        XDATASTART
  C:0000H         LINE#         82
  C:66C5H         LINE#         89
  C:66C7H         LINE#         90
  C:66C8H         LINE#         91
  C:66C9H         LINE#         92
  C:66CBH         LINE#         141
  C:66CEH         LINE#         143
  C:66D0H         LINE#         144
  C:66D3H         LINE#         145
BL51 BANKED LINKER/LOCATER V6.22                                                      05/17/2016  11:14:00  PAGE 74


  C:66D6H         LINE#         146
  C:66D9H         LINE#         147
  C:66DBH         LINE#         149
  C:66DEH         LINE#         151
  C:66E1H         LINE#         152
  C:66E4H         LINE#         153
  C:66E7H         LINE#         154
  C:66E9H         LINE#         155
  C:66EBH         LINE#         157
  C:66EEH         LINE#         158
  C:66F1H         LINE#         159
  C:66F4H         LINE#         160
  C:66F7H         LINE#         161
  C:66FAH         LINE#         162
  C:66FCH         LINE#         164
  C:66FFH         LINE#         166
  -------         ENDMOD        ?C_STARTUP

  -------         MODULE        ?C?CLDPTR
  C:2196H         PUBLIC        ?C?CLDPTR
  -------         ENDMOD        ?C?CLDPTR

  -------         MODULE        ?C?CLDOPTR
  C:21AFH         PUBLIC        ?C?CLDOPTR
  -------         ENDMOD        ?C?CLDOPTR

  -------         MODULE        ?C?CSTPTR
  C:21DCH         PUBLIC        ?C?CSTPTR
  -------         ENDMOD        ?C?CSTPTR

  -------         MODULE        ?C?CSTOPTR
  C:21EEH         PUBLIC        ?C?CSTOPTR
  -------         ENDMOD        ?C?CSTOPTR

  -------         MODULE        ?C?IMUL
  C:2210H         PUBLIC        ?C?IMUL
  -------         ENDMOD        ?C?IMUL

  -------         MODULE        ?C?UIDIV
  C:2222H         PUBLIC        ?C?UIDIV
  -------         ENDMOD        ?C?UIDIV

  -------         MODULE        ?C?IILDX
  C:2277H         PUBLIC        ?C?IILDX
  -------         ENDMOD        ?C?IILDX

  -------         MODULE        ?C?ILDIX
  C:228DH         PUBLIC        ?C?ILDIX
  -------         ENDMOD        ?C?ILDIX

  -------         MODULE        ?C?ILDOPTR
  C:22A3H         PUBLIC        ?C?ILDOPTR
  -------         ENDMOD        ?C?ILDOPTR

  -------         MODULE        ?C?ISTPTR
  C:22DBH         PUBLIC        ?C?ISTPTR
  -------         ENDMOD        ?C?ISTPTR
BL51 BANKED LINKER/LOCATER V6.22                                                      05/17/2016  11:14:00  PAGE 75



  -------         MODULE        ?C?ISTOPTR
  C:22FAH         PUBLIC        ?C?ISTOPTR
  -------         ENDMOD        ?C?ISTOPTR

  -------         MODULE        ?C?ULCMP
  C:2327H         PUBLIC        ?C?ULCMP
  -------         ENDMOD        ?C?ULCMP

  -------         MODULE        ?C?LSHL
  C:2338H         PUBLIC        ?C?LSHL
  -------         ENDMOD        ?C?LSHL

  -------         MODULE        ?C?LLDOPTR
  C:234BH         PUBLIC        ?C?LLDOPTR
  -------         ENDMOD        ?C?LLDOPTR

  -------         MODULE        ?C?LSTXDATA
  C:237BH         PUBLIC        ?C?LSTXDATA
  -------         ENDMOD        ?C?LSTXDATA

  -------         MODULE        ?C?LSTKXDATA
  C:2387H         PUBLIC        ?C?LSTKXDATA
  -------         ENDMOD        ?C?LSTKXDATA

  -------         MODULE        ?C?OFFX256
  C:23B8H         PUBLIC        ?C?OFFX256
  -------         ENDMOD        ?C?OFFX256

  -------         MODULE        ?C?OFFXADD
  C:23C9H         PUBLIC        ?C?OFFXADD
  -------         ENDMOD        ?C?OFFXADD

  -------         MODULE        ?C?CCASE
  C:23D5H         PUBLIC        ?C?CCASE
  -------         ENDMOD        ?C?CCASE

  -------         MODULE        ?C?ICALL
  C:23FBH         PUBLIC        ?C?ICALL
  C:23FFH         PUBLIC        ?C?ICALL2
  -------         ENDMOD        ?C?ICALL

  -------         MODULE        PRINTF
  X:7B50H         PUBLIC        ?_PRINTF517?BYTE
  X:7B50H         PUBLIC        ?_PRINTF?BYTE
  X:7B50H         PUBLIC        ?_SPRINTF517?BYTE
  X:7B50H         PUBLIC        ?_SPRINTF?BYTE
  C:47EFH         PUBLIC        _PRINTF
  C:47EFH         PUBLIC        _PRINTF517
  C:47E9H         PUBLIC        _SPRINTF
  C:47E9H         PUBLIC        _SPRINTF517
  -------         ENDMOD        PRINTF

  -------         MODULE        TOINT
  C:7069H         PUBLIC        _TOINT
  -------         ENDMOD        TOINT

BL51 BANKED LINKER/LOCATER V6.22                                                      05/17/2016  11:14:00  PAGE 76


  -------         MODULE        ISXDIGIT
  C:70B7H         PUBLIC        _isxdigit
  -------         ENDMOD        ISXDIGIT

  -------         MODULE        TOUPPER
  C:714DH         PUBLIC        _toupper
  -------         ENDMOD        TOUPPER

  -------         MODULE        STRNCMP
  X:7B44H         PUBLIC        ?_strncmp?BYTE
  C:6A0FH         PUBLIC        _strncmp
  -------         ENDMOD        STRNCMP

  -------         MODULE        STRNCPY
  X:7B2EH         PUBLIC        ?_strncpy?BYTE
  C:6BF2H         PUBLIC        _strncpy
  -------         ENDMOD        STRNCPY

  -------         MODULE        STRLEN
  C:7138H         PUBLIC        _STRLEN
  -------         ENDMOD        STRLEN

  -------         MODULE        ?C?MEMSET
  C:2401H         PUBLIC        ?C?MEMSET
  -------         ENDMOD        ?C?MEMSET

  -------         MODULE        ?C?MEMCMPAMD
  C:258BH         PUBLIC        ?C?MEMCMPAMD
  -------         ENDMOD        ?C?MEMCMPAMD

  -------         MODULE        ?C?COPYAMD
  C:266BH         PUBLIC        ?C?COPYAMD
  -------         ENDMOD        ?C?COPYAMD

  -------         MODULE        ?C?STRCMPAMD
  C:27E7H         PUBLIC        ?C?STRCMPAMD
  -------         ENDMOD        ?C?STRCMPAMD

  -------         MODULE        ?C?LLDIDATA
  C:2804H         PUBLIC        ?C?LLDIDATA
  -------         ENDMOD        ?C?LLDIDATA

  -------         MODULE        ?C?LLDXDATA
  C:2810H         PUBLIC        ?C?LLDXDATA
  -------         ENDMOD        ?C?LLDXDATA

  -------         MODULE        ?C?LLDPDATA
  C:281CH         PUBLIC        ?C?LLDPDATA
  -------         ENDMOD        ?C?LLDPDATA

  -------         MODULE        ?C?LLDCODE
  C:2828H         PUBLIC        ?C?LLDCODE
  -------         ENDMOD        ?C?LLDCODE

  -------         MODULE        ?C?PLDIXDATA
  C:2838H         PUBLIC        ?C?PLDIXDATA
  -------         ENDMOD        ?C?PLDIXDATA
BL51 BANKED LINKER/LOCATER V6.22                                                      05/17/2016  11:14:00  PAGE 77



  -------         MODULE        ?C?PSTXDATA
  C:284FH         PUBLIC        ?C?PSTXDATA
  -------         ENDMOD        ?C?PSTXDATA

  -------         MODULE        PUTCHAR
  C:7090H         PUBLIC        _PUTCHAR
  -------         ENDMOD        PUTCHAR

Program Size: data=37.0 xdata=31681 code=29036
LINK/LOCATE RUN COMPLETE.  0 WARNING(S),  0 ERROR(S)
