BL51 BANKED LINKER/LOCATER V6.22                                                        04/22/2016  18:21:44  PAGE 1


BL51 BANKED LINKER/LOCATER V6.22, INVOKED BY:
D:\KEIL_V5\C51\BIN\BL51.EXE GF2488-01F1-E1-RST.obj, .\NewLib9.LIB TO citrans550f RAMSIZE (256)


MEMORY MODEL: LARGE


INPUT MODULES INCLUDED:
  GF2488-01F1-E1-RST.obj (GF2488_01F1_E1_RST)
  .\NewLib9.LIB (TIMER)
  .\NewLib9.LIB (COMM)
  .\NewLib9.LIB (DEBUG)
  .\NewLib9.LIB (HDLC)
  .\NewLib9.LIB (?C_STARTUP)
  D:\KEIL_V5\C51\LIB\C51L.LIB (?C_INIT)
  D:\KEIL_V5\C51\LIB\C51L.LIB (?C?CLDPTR)
  D:\KEIL_V5\C51\LIB\C51L.LIB (?C?CLDOPTR)
  D:\KEIL_V5\C51\LIB\C51L.LIB (?C?CSTPTR)
  D:\KEIL_V5\C51\LIB\C51L.LIB (?C?CSTOPTR)
  D:\KEIL_V5\C51\LIB\C51L.LIB (?C?IMUL)
  D:\KEIL_V5\C51\LIB\C51L.LIB (?C?UIDIV)
  D:\KEIL_V5\C51\LIB\C51L.LIB (?C?SIDIV)
  D:\KEIL_V5\C51\LIB\C51L.LIB (?C?IILDX)
  D:\KEIL_V5\C51\LIB\C51L.LIB (?C?ILDIX)
  D:\KEIL_V5\C51\LIB\C51L.LIB (?C?ILDOPTR)
  D:\KEIL_V5\C51\LIB\C51L.LIB (?C?ISTPTR)
  D:\KEIL_V5\C51\LIB\C51L.LIB (?C?ISTOPTR)
  D:\KEIL_V5\C51\LIB\C51L.LIB (?C?ULCMP)
  D:\KEIL_V5\C51\LIB\C51L.LIB (?C?LSHL)
  D:\KEIL_V5\C51\LIB\C51L.LIB (?C?LLDOPTR)
  D:\KEIL_V5\C51\LIB\C51L.LIB (?C?LSTXDATA)
  D:\KEIL_V5\C51\LIB\C51L.LIB (?C?LSTKXDATA)
  D:\KEIL_V5\C51\LIB\C51L.LIB (?C?OFFX256)
  D:\KEIL_V5\C51\LIB\C51L.LIB (?C?OFFXADD)
  D:\KEIL_V5\C51\LIB\C51L.LIB (?C?CCASE)
  D:\KEIL_V5\C51\LIB\C51L.LIB (?C?ICALL)
  D:\KEIL_V5\C51\LIB\C51L.LIB (PRINTF)
  D:\KEIL_V5\C51\LIB\C51L.LIB (TOINT)
  D:\KEIL_V5\C51\LIB\C51L.LIB (ISXDIGIT)
  D:\KEIL_V5\C51\LIB\C51L.LIB (TOUPPER)
  D:\KEIL_V5\C51\LIB\C51L.LIB (STRNCMP)
  D:\KEIL_V5\C51\LIB\C51L.LIB (STRNCPY)
  D:\KEIL_V5\C51\LIB\C51L.LIB (STRLEN)
  D:\KEIL_V5\C51\LIB\C51L.LIB (?C?MEMSET)
  D:\KEIL_V5\C51\LIB\C51L.LIB (?C?MEMCMPAMD)
  D:\KEIL_V5\C51\LIB\C51L.LIB (?C?COPYAMD)
  D:\KEIL_V5\C51\LIB\C51L.LIB (?C?STRCMPAMD)
  D:\KEIL_V5\C51\LIB\C51L.LIB (?C?LLDIDATA)
  D:\KEIL_V5\C51\LIB\C51L.LIB (?C?LLDXDATA)
  D:\KEIL_V5\C51\LIB\C51L.LIB (?C?LLDPDATA)
  D:\KEIL_V5\C51\LIB\C51L.LIB (?C?LLDCODE)
  D:\KEIL_V5\C51\LIB\C51L.LIB (?C?PLDIXDATA)
  D:\KEIL_V5\C51\LIB\C51L.LIB (?C?PSTXDATA)
  D:\KEIL_V5\C51\LIB\C51L.LIB (PUTCHAR)


LINK MAP OF MODULE:  citrans550f (GF2488_01F1_E1_RST)

BL51 BANKED LINKER/LOCATER V6.22                                                      04/22/2016  18:21:44  PAGE 2



            TYPE    BASE      LENGTH    RELOCATION   SEGMENT NAME
            -----------------------------------------------------

            * * * * * * *   D A T A   M E M O R Y   * * * * * * *
            REG     0000H     0008H     ABSOLUTE     "REG BANK 0"
            REG     0008H     0008H     ABSOLUTE     "REG BANK 1"
            REG     0010H     0008H     ABSOLUTE     "REG BANK 2"
            DATA    0018H     0007H     UNIT         _DATA_GROUP_
            DATA    001FH     0001H     UNIT         ?DT?DEBUG
            DATA    0020H     0001H     BIT_ADDR     ?BA?GF2488_01F1_E1_RST
            DATA    0021H     0001H     BIT_ADDR     ?BA?COMM
            BIT     0022H.0   0001H.1   UNIT         _BIT_GROUP_
            BIT     0023H.1   0000H.6   UNIT         ?BI?COMM
            BIT     0023H.7   0000H.1   UNIT         ?BI?DEBUG
            IDATA   0024H     0001H     UNIT         ?STACK

            * * * * * * *  X D A T A   M E M O R Y  * * * * * * *
            XDATA   0000H     2000H     ABSOLUTE     
            XDATA   2000H     56DEH     UNIT         ?XD?GF2488_01F1_E1_RST
            XDATA   76DEH     0437H     UNIT         ?XD?COMM
            XDATA   7B15H     005EH     UNIT         _XDATA_GROUP_
            XDATA   7B73H     002AH     UNIT         ?XD?DEBUG
            XDATA   7B9DH     0010H     UNIT         ?XD?TIMER
            XDATA   7BADH     000FH     UNIT         ?XD?HDLC

            * * * * * * *   C O D E   M E M O R Y   * * * * * * *
            CODE    0000H     0003H     ABSOLUTE     
            CODE    0003H     0003H     ABSOLUTE     
            CODE    0006H     0007H     UNIT         ?PR?TIMER
            CODE    000DH     0004H     UNIT         ?C_INITSEG
            CODE    0011H     0001H     UNIT         ?PR?USERFUNC?GF2488_01F1_E1_RST
                    0012H     0001H                  *** GAP ***
            CODE    0013H     0003H     ABSOLUTE     
                    0016H     000DH                  *** GAP ***
            CODE    0023H     0003H     ABSOLUTE     
                    0026H     0005H                  *** GAP ***
            CODE    002BH     0003H     ABSOLUTE     
            CODE    002EH     0F6CH     UNIT         ?PR?GETDATA?GF2488_01F1_E1_RST
            CODE    0F9AH     0940H     UNIT         ?PR?PROCCMD?COMM
            CODE    18DAH     092AH     UNIT         ?PR?DEBUG?DEBUG
            CODE    2204H     06F8H     UNIT         ?C?LIB_CODE
            CODE    28FCH     0655H     UNIT         ?PR?_CALUAS?GF2488_01F1_E1_RST
            CODE    2F51H     0590H     UNIT         ?PR?COMM
            CODE    34E1H     0583H     UNIT         ?PR?CONFSET?GF2488_01F1_E1_RST
            CODE    3A64H     0529H     UNIT         ?PR?INITIOSW1021?GF2488_01F1_E1_RST
            CODE    3F8DH     0460H     UNIT         ?PR?_DOWNSOFT?COMM
            CODE    43EDH     03CCH     UNIT         ?PR?SELFCONF?GF2488_01F1_E1_RST
            CODE    47B9H     0365H     UNIT         ?PR?PRINTF?PRINTF
            CODE    4B1EH     02DCH     UNIT         ?PR?USERHDLC?GF2488_01F1_E1_RST
            CODE    4DFAH     024BH     UNIT         ?CO?COMM
            CODE    5045H     0243H     UNIT         ?PR?PROCALMDATA?COMM
            CODE    5288H     022FH     UNIT         ?CO?DEBUG
            CODE    54B7H     0214H     UNIT         ?PR?SOFTUPDATE?COMM
            CODE    56CBH     0211H     UNIT         ?PR?HDLCOK?HDLC
            CODE    58DCH     01DFH     UNIT         ?PR?PROCHISDATA?COMM
            CODE    5ABBH     01CDH     UNIT         ?PR?_VERSHOW?COMM
BL51 BANKED LINKER/LOCATER V6.22                                                      04/22/2016  18:21:44  PAGE 3


            CODE    5C88H     01B9H     UNIT         ?PR?UASQUARTER?GF2488_01F1_E1_RST
            CODE    5E41H     0118H     UNIT         ?PR?SCC1TX?HDLC
            CODE    5F59H     00FDH     UNIT         ?PR?CHECKSW1021INIT?GF2488_01F1_E1_RST
            CODE    6056H     00F9H     UNIT         ?PR?TIMERINTEP?TIMER
            CODE    614FH     00F8H     UNIT         ?PR?DEBUG
            CODE    6247H     00E2H     UNIT         ?PR?UASCLEAR?GF2488_01F1_E1_RST
            CODE    6329H     00D0H     UNIT         ?CO?GF2488_01F1_E1_RST
            CODE    63F9H     00CEH     UNIT         ?PR?MAIN?GF2488_01F1_E1_RST
            CODE    64C7H     00C5H     UNIT         ?PR?SCC2INTEP?DEBUG
            CODE    658CH     00BEH     UNIT         ?PR?_WRITEEXPECTJ2?GF2488_01F1_E1_RST
            CODE    664AH     00BDH     UNIT         ?C_C51STARTUP
            CODE    6707H     00AFH     UNIT         ?PR?_WRITETXJ2?GF2488_01F1_E1_RST
            CODE    67B6H     00AFH     UNIT         ?PR?_READBCTHEAD?COMM
            CODE    6865H     00A7H     UNIT         ?PR?HDLC
            CODE    690CH     0088H     UNIT         ?PR?COPYFLASH?COMM
            CODE    6994H     0087H     UNIT         ?PR?_STRNCMP?STRNCMP
            CODE    6A1BH     0083H     UNIT         ?PR?_READFPGAHEAD?COMM
            CODE    6A9EH     006EH     UNIT         ?PR?_PROGBAKFLASH?COMM
            CODE    6B0CH     006BH     UNIT         ?PR?RAMTEST?COMM
            CODE    6B77H     0068H     UNIT         ?PR?_STRNCPY?STRNCPY
            CODE    6BDFH     0066H     UNIT         ?PR?COMMVARINIT?COMM
            CODE    6C45H     0065H     UNIT         ?PR?_PROGRAM_ONE_BYTE?COMM
            CODE    6CAAH     005CH     UNIT         ?PR?_PROGRAMAPROM?COMM
            CODE    6D06H     005CH     UNIT         ?PR?SCC1INIT?HDLC
            CODE    6D62H     005BH     UNIT         ?PR?_CHECK_SST_39VF?COMM
            CODE    6DBDH     0056H     UNIT         ?PR?_MEMCRC?COMM
            CODE    6E13H     0050H     UNIT         ?PR?_CRCCCITT?COMM
            CODE    6E63H     0044H     UNIT         ?PR?SCC2INIT?DEBUG
            CODE    6EA7H     003DH     UNIT         ?PR?JUMPTOAUX?COMM
            CODE    6EE4H     003AH     UNIT         ?PR?ISPINIT?COMM
            CODE    6F1EH     0039H     UNIT         ?PR?TIMERINIT?TIMER
            CODE    6F57H     0038H     UNIT         ?PR?_ERASEFLASH?COMM
            CODE    6F8FH     0035H     UNIT         ?PR?HDLCERR?HDLC
            CODE    6FC4H     002AH     UNIT         ?PR?BOOTINIT?COMM
            CODE    6FEEH     0027H     UNIT         ?PR?TOINT?TOINT
            CODE    7015H     0027H     UNIT         ?PR?PUTCHAR?PUTCHAR
            CODE    703CH     0026H     UNIT         ?PR?_ISXDIGIT?ISXDIGIT
            CODE    7062H     0024H     UNIT         ?PR?_DELAY?TIMER
            CODE    7086H     0020H     UNIT         ?PR?_ERASEAPROM?COMM
            CODE    70A6H     0017H     UNIT         ?PR?RESET?COMM
            CODE    70BDH     0015H     UNIT         ?PR?_STRLEN?STRLEN
            CODE    70D2H     0011H     UNIT         ?PR?_TOUPPER?TOUPPER
            CODE    70E3H     0010H     UNIT         ?PR?TXDATA?DEBUG
            CODE    70F3H     0010H     UNIT         ?PR?SCC1HARDINIT?HDLC



OVERLAY MAP OF MODULE:   citrans550f (GF2488_01F1_E1_RST)


SEGMENT                                           BIT_GROUP          DATA_GROUP          XDATA_GROUP
  +--> CALLED SEGMENT                          START    LENGTH     START    LENGTH     START    LENGTH
------------------------------------------------------------------------------------------------------
?PR?TIMERINTEP?TIMER                           -----    -----      -----    -----      -----    -----
  +--> ?PR?TIMER
  +--> ?PR?SCC1HARDINIT?HDLC
  +--> ?PR?USERFUNC?GF2488_01F1_E1_RST
BL51 BANKED LINKER/LOCATER V6.22                                                      04/22/2016  18:21:44  PAGE 4



*** NEW ROOT ***************************************************

?PR?SCC2INTEP?DEBUG                            -----    -----      -----    -----      -----    -----
  +--> ?PR?_TOUPPER?TOUPPER
  +--> ?PR?DEBUG

?PR?DEBUG                                      -----    -----      -----    -----      -----    -----
  +--> ?CO?DEBUG

*** NEW ROOT ***************************************************

?PR?HDLCOK?HDLC                                -----    -----      -----    -----      -----    -----
  +--> ?PR?HDLC
  +--> ?PR?PROCCMD?COMM
  +--> ?PR?SCC1TX?HDLC

?PR?PROCCMD?COMM                               -----    -----      -----    -----      7B15H    000CH
  +--> ?PR?COMM
  +--> ?CO?COMM
  +--> ?PR?_STRLEN?STRLEN
  +--> ?CO?GF2488_01F1_E1_RST
  +--> ?PR?_READBCTHEAD?COMM
  +--> ?PR?_READFPGAHEAD?COMM
  +--> ?PR?_DOWNSOFT?COMM
  +--> ?PR?USERHDLC?GF2488_01F1_E1_RST
  +--> ?PR?_VERSHOW?COMM

?PR?COMM                                       -----    -----      -----    -----      -----    -----
  +--> ?CO?GF2488_01F1_E1_RST
  +--> ?CO?COMM

?PR?_READBCTHEAD?COMM                          -----    -----      -----    -----      7B26H    0003H
  +--> ?PR?COMM
  +--> ?CO?GF2488_01F1_E1_RST
  +--> ?PR?_STRNCPY?STRNCPY

?PR?_STRNCPY?STRNCPY                           -----    -----      -----    -----      7B29H    000AH

?PR?_READFPGAHEAD?COMM                         -----    -----      -----    -----      7B26H    0006H
  +--> ?PR?COMM

?PR?_DOWNSOFT?COMM                             -----    -----      -----    -----      7B21H    0005H
  +--> ?PR?COMM
  +--> ?PR?_READBCTHEAD?COMM
  +--> ?PR?_READFPGAHEAD?COMM
  +--> ?PR?_CRCCCITT?COMM

?PR?_CRCCCITT?COMM                             -----    -----      -----    -----      7B26H    0007H
  +--> ?PR?COMM

?PR?USERHDLC?GF2488_01F1_E1_RST                -----    -----      -----    -----      7B21H    0006H

?PR?_VERSHOW?COMM                              -----    -----      -----    -----      7B21H    0008H
  +--> ?PR?COMM
  +--> ?CO?COMM
  +--> ?PR?_STRLEN?STRLEN
BL51 BANKED LINKER/LOCATER V6.22                                                      04/22/2016  18:21:44  PAGE 5



?PR?SCC1TX?HDLC                                -----    -----      0018H    0002H      7B15H    0002H
  +--> ?PR?HDLC

*** NEW ROOT ***************************************************

?PR?HDLCERR?HDLC                               -----    -----      -----    -----      -----    -----
  +--> ?PR?HDLC

*** NEW ROOT ***************************************************

?C_C51STARTUP                                  -----    -----      -----    -----      -----    -----
  +--> ?PR?BOOTINIT?COMM
  +--> ?PR?MAIN?GF2488_01F1_E1_RST
  +--> ?C_INITSEG

?PR?BOOTINIT?COMM                              -----    -----      -----    -----      -----    -----
  +--> ?PR?COMM
  +--> ?PR?RAMTEST?COMM
  +--> ?PR?COMMVARINIT?COMM
  +--> ?PR?ISPINIT?COMM
  +--> ?PR?SCC2INIT?DEBUG
  +--> ?PR?SCC1INIT?HDLC
  +--> ?PR?TIMERINIT?TIMER

?PR?RAMTEST?COMM                               -----    -----      001AH    0002H      -----    -----
  +--> ?PR?COMM
  +--> ?PR?RESET?COMM

?PR?COMMVARINIT?COMM                           -----    -----      -----    -----      -----    -----
  +--> ?PR?COMM

?PR?SCC2INIT?DEBUG                             -----    -----      -----    -----      -----    -----
  +--> ?PR?DEBUG

?PR?MAIN?GF2488_01F1_E1_RST                    -----    -----      -----    -----      7B33H    0002H
  +--> ?PR?SELFCONF?GF2488_01F1_E1_RST
  +--> ?PR?CHECKSW1021INIT?GF2488_01F1_E1_RST
  +--> ?PR?INITIOSW1021?GF2488_01F1_E1_RST
  +--> ?PR?CONFSET?GF2488_01F1_E1_RST
  +--> ?PR?GETDATA?GF2488_01F1_E1_RST
  +--> ?PR?PROCALMDATA?COMM
  +--> ?PR?UASQUARTER?GF2488_01F1_E1_RST
  +--> ?PR?PROCHISDATA?COMM
  +--> ?PR?DEBUG?DEBUG

?PR?SELFCONF?GF2488_01F1_E1_RST                -----    -----      -----    -----      7B35H    0016H
  +--> ?CO?GF2488_01F1_E1_RST
  +--> ?PR?PRINTF?PRINTF

?PR?PRINTF?PRINTF                              0022H.0  0001H.1    001AH    0005H      7B4BH    0028H
  +--> ?PR?PUTCHAR?PUTCHAR

?PR?CHECKSW1021INIT?GF2488_01F1_E1_RST         -----    -----      -----    -----      7B35H    0004H

?PR?INITIOSW1021?GF2488_01F1_E1_RST            -----    -----      -----    -----      7B35H    0006H
  +--> ?PR?_DELAY?TIMER
BL51 BANKED LINKER/LOCATER V6.22                                                      04/22/2016  18:21:44  PAGE 6


  +--> ?CO?GF2488_01F1_E1_RST
  +--> ?PR?_WRITETXJ2?GF2488_01F1_E1_RST
  +--> ?PR?_WRITEEXPECTJ2?GF2488_01F1_E1_RST

?PR?_DELAY?TIMER                               -----    -----      -----    -----      -----    -----
  +--> ?PR?TIMER

?PR?_WRITETXJ2?GF2488_01F1_E1_RST              -----    -----      -----    -----      7B3FH    0009H

?PR?_WRITEEXPECTJ2?GF2488_01F1_E1_RST          -----    -----      -----    -----      7B3FH    0009H

?PR?CONFSET?GF2488_01F1_E1_RST                 -----    -----      -----    -----      7B39H    0006H
  +--> ?CO?GF2488_01F1_E1_RST
  +--> ?PR?_DELAY?TIMER
  +--> ?PR?_WRITETXJ2?GF2488_01F1_E1_RST
  +--> ?PR?_WRITEEXPECTJ2?GF2488_01F1_E1_RST

?PR?GETDATA?GF2488_01F1_E1_RST                 -----    -----      -----    -----      7B35H    0014H
  +--> ?PR?_DELAY?TIMER
  +--> ?PR?UASCLEAR?GF2488_01F1_E1_RST
  +--> ?PR?_CALUAS?GF2488_01F1_E1_RST

?PR?_CALUAS?GF2488_01F1_E1_RST                 -----    -----      -----    -----      7B49H    0004H

?PR?PROCALMDATA?COMM                           -----    -----      -----    -----      7B35H    0004H
  +--> ?PR?RESET?COMM
  +--> ?CO?GF2488_01F1_E1_RST
  +--> ?PR?_MEMCRC?COMM
  +--> ?PR?COMM
  +--> ?PR?CONFSET?GF2488_01F1_E1_RST
  +--> ?PR?SOFTUPDATE?COMM

?PR?_MEMCRC?COMM                               -----    -----      -----    -----      7B39H    0007H
  +--> ?PR?COMM

?PR?SOFTUPDATE?COMM                            -----    -----      -----    -----      7B39H    000AH
  +--> ?PR?_ERASEFLASH?COMM
  +--> ?PR?COMM
  +--> ?PR?COPYFLASH?COMM
  +--> ?PR?RESET?COMM
  +--> ?PR?_CHECK_SST_39VF?COMM
  +--> ?PR?_PROGBAKFLASH?COMM
  +--> ?PR?_ERASEAPROM?COMM
  +--> ?PR?_PROGRAMAPROM?COMM
  +--> ?PR?JUMPTOAUX?COMM

?PR?_ERASEFLASH?COMM                           -----    -----      -----    -----      -----    -----
  +--> ?PR?COMM
  +--> ?PR?_DELAY?TIMER

?PR?COPYFLASH?COMM                             -----    -----      -----    -----      7B43H    0009H
  +--> ?PR?COMM
  +--> ?PR?_PROGRAM_ONE_BYTE?COMM

?PR?_PROGRAM_ONE_BYTE?COMM                     -----    -----      -----    -----      7B4EH    0006H
  +--> ?PR?COMM

BL51 BANKED LINKER/LOCATER V6.22                                                      04/22/2016  18:21:44  PAGE 7


?PR?_CHECK_SST_39VF?COMM                       -----    -----      -----    -----      -----    -----
  +--> ?PR?COMM

?PR?_PROGBAKFLASH?COMM                         -----    -----      -----    -----      7B43H    000BH
  +--> ?PR?COMM
  +--> ?PR?_PROGRAM_ONE_BYTE?COMM

?PR?_PROGRAMAPROM?COMM                         -----    -----      -----    -----      7B43H    0007H

?PR?PROCHISDATA?COMM                           -----    -----      -----    -----      -----    -----
  +--> ?PR?COMM
  +--> ?CO?GF2488_01F1_E1_RST
  +--> ?PR?RESET?COMM
  +--> ?PR?_MEMCRC?COMM

?PR?DEBUG?DEBUG                                -----    -----      -----    -----      7B35H    000AH
  +--> ?PR?DEBUG
  +--> ?CO?DEBUG
  +--> ?PR?_DELAY?TIMER
  +--> ?PR?JUMPTOAUX?COMM
  +--> ?PR?PRINTF?PRINTF
  +--> ?PR?TOINT?TOINT
  +--> ?PR?_ISXDIGIT?ISXDIGIT
  +--> ?CO?GF2488_01F1_E1_RST
  +--> ?CO?COMM
  +--> ?PR?_STRNCMP?STRNCMP
  +--> ?PR?RESET?COMM
  +--> ?PR?_CHECK_SST_39VF?COMM
  +--> ?PR?TXDATA?DEBUG

?PR?_STRNCMP?STRNCMP                           -----    -----      -----    -----      7B3FH    0008H

?PR?TXDATA?DEBUG                               -----    -----      -----    -----      -----    -----
  +--> ?PR?DEBUG



SYMBOL TABLE OF MODULE:  citrans550f (GF2488_01F1_E1_RST)

  VALUE           TYPE          NAME
  ----------------------------------

  -------         MODULE        GF2488_01F1_E1_RST
  C:0000H         SYMBOL        _ICE_DUMMY_
  C:633CH         PUBLIC        g_usAlmNum
  B:0020H.7       PUBLIC        IO15
  C:3A64H         PUBLIC        InitioSw1021
  D:0090H         PUBLIC        P1
  D:00B0H         PUBLIC        P3
  C:5F59H         SYMBOL        checkSW1021Init
  C:633BH         PUBLIC        g_ucBoardCode
  X:2000H         PUBLIC        g_ucNoUseFlag
  D:00A8H         PUBLIC        IE
  X:203FH         PUBLIC        N1000
  X:20BDH         PUBLIC        ulSesLimit
  X:20BFH         PUBLIC        g_usiNoEs
  X:213DH         PUBLIC        g_usiNoUseBbe
BL51 BANKED LINKER/LOCATER V6.22                                                      04/22/2016  18:21:44  PAGE 8


  C:5C88H         PUBLIC        UasQuarter
  C:633AH         PUBLIC        g_ucAlmTypeNum
  C:43EDH         PUBLIC        SelfConf
  C:6247H         PUBLIC        UasClear
  C:658CH         SYMBOL        _writeExpectJ2
  D:00B8H         PUBLIC        IP
  C:002EH         PUBLIC        GetData
  X:21BBH         PUBLIC        ulEsLimit
  C:4B1EH         PUBLIC        UserHdlc
  C:63A4H         PUBLIC        SoftDate
  X:21BDH         PUBLIC        g_ucNoUseTime
  C:633EH         PUBLIC        g_usPmNum
  X:21FCH         PUBLIC        g_usiBbe
  X:227AH         PUBLIC        g_ucState
  X:23CCH         PUBLIC        g_ucConfData
  C:63F9H         PUBLIC        main
  C:6386H         PUBLIC        PcbTime
  X:2DCCH         PUBLIC        g_ucLineCode
  X:2E0CH         PUBLIC        g_usiCses
  C:6353H         PUBLIC        BoardSn
  C:0011H         PUBLIC        UserFunc
  C:63B0H         PUBLIC        SoftTime
  X:2E8AH         PUBLIC        first_conf
  D:0088H         PUBLIC        TCON
  C:34E1H         PUBLIC        ConfSet
  C:6339H         PUBLIC        g_ucPmTypeNum
  X:2E8BH         PUBLIC        sw1021Chip
  C:6391H         PUBLIC        BoardSoftVer
  X:2E8DH         PUBLIC        g_ucAlmCode
  X:2E9CH         PUBLIC        g_ucLineMask
  C:28FCH         PUBLIC        _CalUas
  X:2EDCH         PUBLIC        ulSesLmt
  X:2FD8H         PUBLIC        g_bClearUas
  X:2FD9H         PUBLIC        g_ucLofFlag
  X:3018H         PUBLIC        g_stuAlm
  D:0020H         PUBLIC        hio
  C:63B9H         PUBLIC        slot
  C:6341H         PUBLIC        SysName
  X:6576H         PUBLIC        g_usiOfs
  X:65F4H         PUBLIC        g_usiUas
  X:6672H         PUBLIC        actnumber
  X:6673H         PUBLIC        g_usiSes
  X:66F1H         PUBLIC        almnumber
  B:0090H.2       PUBLIC        IO2
  X:66F2H         PUBLIC        g_ucAlmMask
  C:6363H         PUBLIC        SoftVer
  B:0090H.5       PUBLIC        IO5
  B:0090H.6       PUBLIC        IO6
  B:0090H.7       PUBLIC        IO7
  X:6701H         PUBLIC        g_liError1s
  B:0020H.0       PUBLIC        IO8
  B:0020H.1       PUBLIC        IO9
  X:67FDH         PUBLIC        BIP_2_1S
  X:687BH         PUBLIC        g_usiEs
  D:00E8H         PUBLIC        EIE
  C:6337H         PUBLIC        g_usStateLen
  C:6376H         PUBLIC        PcbSn
BL51 BANKED LINKER/LOCATER V6.22                                                      04/22/2016  18:21:44  PAGE 9


  C:6335H         PUBLIC        g_usConfLen
  X:68F9H         PUBLIC        BIP
  X:6977H         PUBLIC        g_ucPmCode
  C:6340H         PUBLIC        g_ucLineNum
  D:00F8H         PUBLIC        EIP
  X:697EH         PUBLIC        g_ucUseTime
  X:69BDH         PUBLIC        g_ucAlmType
  X:69CCH         PUBLIC        BIP_2_1000S
  X:6A4AH         PUBLIC        g_stuPm
  D:0098H         PUBLIC        SCON0
  D:00C0H         PUBLIC        SCON1
  D:00C8H         PUBLIC        T2CON
  X:74A0H         PUBLIC        g_ucEsTime
  X:74DFH         PUBLIC        g_ucDefectFlag
  X:751EH         PUBLIC        g_ucPmMask
  C:634CH         PUBLIC        BoardName
  C:6707H         SYMBOL        _writeTxJ2
  X:7525H         PUBLIC        g_ucLinePmMask
  B:0020H.2       PUBLIC        IO10
  B:0020H.3       PUBLIC        IO11
  D:00D0H         PUBLIC        PSW
  B:0020H.4       PUBLIC        IO12
  B:0020H.5       PUBLIC        IO13
  D:00D8H         PUBLIC        WDCON
  B:0020H.6       PUBLIC        IO14
  -------         PROC          _CALUAS
  X:7B49H         SYMBOL        ulSesLmt
  -------         DO            
  X:7B4CH         SYMBOL        i
  -------         ENDDO         
  C:28FCH         LINE#         65
  C:2907H         LINE#         66
  C:2907H         LINE#         70
  C:2917H         LINE#         71
  C:2917H         LINE#         72
  C:2927H         LINE#         73
  C:2927H         LINE#         74
  C:297FH         LINE#         75
  C:297FH         LINE#         77
  C:29BBH         LINE#         78
  C:29C7H         LINE#         79
  C:29D3H         LINE#         80
  C:29E3H         LINE#         81
  C:29F3H         LINE#         82
  C:29F6H         LINE#         84
  C:29F6H         LINE#         85
  C:2A20H         LINE#         86
  C:2A20H         LINE#         87
  C:2A31H         LINE#         89
  C:2A4DH         LINE#         91
  C:2A4DH         LINE#         92
  C:2A76H         LINE#         93
  C:2AB7H         LINE#         94
  C:2AB7H         LINE#         95
  C:2AB9H         LINE#         96
  C:2AC9H         LINE#         97
  C:2AF7H         LINE#         98
BL51 BANKED LINKER/LOCATER V6.22                                                      04/22/2016  18:21:44  PAGE 10


  C:2AF7H         LINE#         99
  C:2B07H         LINE#         101
  C:2B29H         LINE#         103
  C:2B47H         LINE#         105
  C:2B6AH         LINE#         106
  C:2BA5H         LINE#         107
  C:2BB9H         LINE#         108
  C:2BC5H         LINE#         109
  C:2BCDH         LINE#         110
  C:2BCDH         LINE#         111
  C:2BCDH         LINE#         112
  C:2BD0H         LINE#         114
  C:2BD0H         LINE#         116
  C:2C2CH         LINE#         117
  C:2C2CH         LINE#         118
  C:2C42H         LINE#         119
  C:2C42H         LINE#         120
  C:2C53H         LINE#         122
  C:2C71H         LINE#         123
  C:2C7DH         LINE#         124
  C:2C7DH         LINE#         126
  C:2CAFH         LINE#         127
  C:2CB2H         LINE#         129
  C:2CB2H         LINE#         130
  C:2CDCH         LINE#         131
  C:2CDCH         LINE#         132
  C:2CF3H         LINE#         133
  C:2D0AH         LINE#         135
  C:2D0AH         LINE#         136
  C:2D33H         LINE#         137
  C:2D74H         LINE#         138
  C:2D74H         LINE#         139
  C:2D76H         LINE#         140
  C:2D8CH         LINE#         142
  C:2DAEH         LINE#         143
  C:2DD0H         LINE#         144
  C:2DF9H         LINE#         145
  C:2E08H         LINE#         147
  C:2E08H         LINE#         149
  C:2E08H         LINE#         151
  C:2E18H         LINE#         152
  C:2E2DH         LINE#         154
  C:2E5CH         LINE#         155
  C:2E8BH         LINE#         156
  C:2EBAH         LINE#         157
  C:2EE9H         LINE#         158
  C:2F18H         LINE#         159
  C:2F47H         LINE#         161
  C:2F50H         LINE#         163
  -------         ENDPROC       _CALUAS
  -------         PROC          UASCLEAR
  -------         DO            
  D:0007H         SYMBOL        i
  -------         ENDDO         
  C:6247H         LINE#         165
  C:6247H         LINE#         166
  C:6247H         LINE#         169
BL51 BANKED LINKER/LOCATER V6.22                                                      04/22/2016  18:21:44  PAGE 11


  C:6250H         LINE#         170
  C:6250H         LINE#         171
  C:6252H         LINE#         172
  C:6252H         LINE#         173
  C:625EH         LINE#         174
  C:626AH         LINE#         175
  C:6276H         LINE#         176
  C:6282H         LINE#         177
  C:628EH         LINE#         178
  C:629AH         LINE#         179
  C:62AAH         LINE#         180
  C:62BAH         LINE#         181
  C:62CAH         LINE#         182
  C:62DAH         LINE#         183
  C:62EAH         LINE#         184
  C:62FAH         LINE#         185
  C:630AH         LINE#         186
  C:631AH         LINE#         188
  C:6323H         LINE#         189
  C:6328H         LINE#         190
  C:6328H         LINE#         191
  -------         ENDPROC       UASCLEAR
  -------         PROC          UASQUARTER
  -------         DO            
  D:0007H         SYMBOL        i
  -------         ENDDO         
  C:5C88H         LINE#         208
  C:5C88H         LINE#         209
  C:5C88H         LINE#         211
  C:5C8AH         LINE#         212
  C:5C8AH         LINE#         213
  C:5C97H         LINE#         214
  C:5C97H         LINE#         215
  C:5CA3H         LINE#         217
  C:5CCCH         LINE#         218
  C:5CCEH         LINE#         220
  C:5CCEH         LINE#         221
  C:5CECH         LINE#         222
  C:5D0AH         LINE#         223
  C:5D2FH         LINE#         225
  C:5D2FH         LINE#         227
  C:5D5AH         LINE#         228
  C:5D85H         LINE#         229
  C:5DB0H         LINE#         230
  C:5DDBH         LINE#         231
  C:5E06H         LINE#         232
  C:5E31H         LINE#         234
  C:5E3AH         LINE#         235
  C:5E40H         LINE#         236
  -------         ENDPROC       UASQUARTER
  -------         PROC          _WRITETXJ2
  D:0001H         SYMBOL        chip
  X:7B40H         SYMBOL        witchJ2
  D:0003H         SYMBOL        Slot
  X:7B42H         SYMBOL        j2
  X:7B43H         SYMBOL        busB
  -------         DO            
BL51 BANKED LINKER/LOCATER V6.22                                                      04/22/2016  18:21:44  PAGE 12


  X:7B44H         SYMBOL        copOk
  D:0004H         SYMBOL        busBase
  X:7B46H         SYMBOL        i
  -------         ENDDO         
  C:6707H         LINE#         129
  C:670EH         LINE#         130
  C:670EH         LINE#         131
  C:6715H         LINE#         132
  C:6718H         LINE#         133
  C:671EH         LINE#         134
  C:6724H         LINE#         135
  C:6726H         LINE#         137
  C:6744H         LINE#         138
  C:6755H         LINE#         139
  C:6772H         LINE#         140
  C:677CH         LINE#         141
  C:679FH         LINE#         142
  C:67ADH         LINE#         143
  C:67B4H         LINE#         144
  C:67B5H         LINE#         147
  -------         ENDPROC       _WRITETXJ2
  -------         PROC          _WRITEEXPECTJ2
  D:0001H         SYMBOL        chip
  X:7B40H         SYMBOL        witchJ2
  D:0003H         SYMBOL        Slot
  X:7B42H         SYMBOL        j2
  X:7B43H         SYMBOL        busB
  -------         DO            
  X:7B44H         SYMBOL        copOk
  D:0004H         SYMBOL        busBase
  X:7B46H         SYMBOL        i
  -------         ENDDO         
  C:658CH         LINE#         149
  C:6593H         LINE#         150
  C:6593H         LINE#         151
  C:659AH         LINE#         152
  C:659DH         LINE#         153
  C:65A3H         LINE#         154
  C:65A9H         LINE#         155
  C:65ABH         LINE#         157
  C:65C9H         LINE#         158
  C:65E9H         LINE#         159
  C:6606H         LINE#         160
  C:6610H         LINE#         161
  C:6633H         LINE#         162
  C:6641H         LINE#         163
  C:6648H         LINE#         164
  C:6649H         LINE#         167
  -------         ENDPROC       _WRITEEXPECTJ2
  -------         PROC          GETDATA
  -------         DO            
  X:7B35H         SYMBOL        i
  X:7B36H         SYMBOL        m
  X:7B37H         SYMBOL        n
  X:7B38H         SYMBOL        mi
  X:7B39H         SYMBOL        ni
  D:0003H         SYMBOL        tmp
BL51 BANKED LINKER/LOCATER V6.22                                                      04/22/2016  18:21:44  PAGE 13


  D:0005H         SYMBOL        tmpi
  X:7B3AH         SYMBOL        ADCLK
  X:7B3BH         SYMBOL        PPILOS
  X:7B3CH         SYMBOL        TULOP
  X:7B3DH         SYMBOL        LPSLM
  X:7B3EH         SYMBOL        LPTIM
  X:7B3FH         SYMBOL        LPTIU
  X:7B40H         SYMBOL        LPRDI
  X:7B41H         SYMBOL        LPRFI
  X:7B42H         SYMBOL        LPUNEQ
  X:7B43H         SYMBOL        TUAIS
  X:7B44H         SYMBOL        PPIAIS
  X:7B45H         SYMBOL        LOOP
  X:7B46H         SYMBOL        LOOPL
  D:0001H         SYMBOL        tv5
  X:7B47H         SYMBOL        LPFEBE
  D:0006H         SYMBOL        HDB3
  -------         ENDDO         
  C:002EH         LINE#         182
  C:002EH         LINE#         183
  C:002EH         LINE#         187
  C:0033H         LINE#         188
  C:0037H         LINE#         189
  C:0040H         LINE#         190
  C:0051H         LINE#         191
  C:0051H         LINE#         193
  C:005EH         LINE#         194
  C:005EH         LINE#         195
  C:006EH         LINE#         197
  C:0084H         LINE#         199
  C:0087H         LINE#         201
  C:0087H         LINE#         202
  C:0093H         LINE#         203
  C:009CH         LINE#         204
  C:00A9H         LINE#         205
  C:00AEH         LINE#         207
  C:00C1H         LINE#         209
  C:00CDH         LINE#         210
  C:00DFH         LINE#         212
  C:00EEH         LINE#         214
  C:0103H         LINE#         216
  C:011AH         LINE#         217
  C:0145H         LINE#         218
  C:014BH         LINE#         219
  C:0152H         LINE#         232
  C:015EH         LINE#         233
  C:018FH         LINE#         234
  C:0195H         LINE#         235
  C:019CH         LINE#         236
  C:01A3H         LINE#         237
  C:01A8H         LINE#         238
  C:01ADH         LINE#         239
  C:01B2H         LINE#         240
  C:01B7H         LINE#         241
  C:01BCH         LINE#         244
  C:01E1H         LINE#         246
  C:0219H         LINE#         247
BL51 BANKED LINKER/LOCATER V6.22                                                      04/22/2016  18:21:44  PAGE 14


  C:021BH         LINE#         249
  C:0253H         LINE#         250
  C:0253H         LINE#         256
  C:0286H         LINE#         257
  C:0334H         LINE#         259
  C:0368H         LINE#         260
  C:03ACH         LINE#         262
  C:03DAH         LINE#         264
  C:03E0H         LINE#         265
  C:03E9H         LINE#         267
  C:041BH         LINE#         268
  C:041BH         LINE#         269
  C:0430H         LINE#         270
  C:0446H         LINE#         272
  C:0446H         LINE#         273
  C:0461H         LINE#         274
  C:0467H         LINE#         275
  C:0467H         LINE#         277
  C:049BH         LINE#         278
  C:04ACH         LINE#         280
  C:04B1H         LINE#         281
  C:04E5H         LINE#         283
  C:04E7H         LINE#         284
  C:04F7H         LINE#         285
  C:04F7H         LINE#         287
  C:04F9H         LINE#         289
  C:04F9H         LINE#         290
  C:050EH         LINE#         291
  C:0527H         LINE#         292
  C:053CH         LINE#         293
  C:053CH         LINE#         296
  C:055AH         LINE#         297
  C:056BH         LINE#         298
  C:0589H         LINE#         299
  C:059AH         LINE#         300
  C:05A0H         LINE#         301
  C:05A0H         LINE#         302
  C:05B5H         LINE#         303
  C:05C6H         LINE#         304
  C:05D7H         LINE#         308
  C:05DBH         LINE#         309
  C:05DEH         LINE#         311
  C:05DEH         LINE#         312
  C:05FBH         LINE#         313
  C:060CH         LINE#         314
  C:0629H         LINE#         315
  C:063AH         LINE#         316
  C:0657H         LINE#         317
  C:0668H         LINE#         325
  C:0685H         LINE#         326
  C:0696H         LINE#         327
  C:0696H         LINE#         328
  C:06B3H         LINE#         329
  C:06C4H         LINE#         330
  C:06E1H         LINE#         331
  C:06F2H         LINE#         332
  C:0736H         LINE#         333
BL51 BANKED LINKER/LOCATER V6.22                                                      04/22/2016  18:21:44  PAGE 15


  C:0756H         LINE#         334
  C:076FH         LINE#         335
  C:076FH         LINE#         337
  C:07A3H         LINE#         339
  C:07DEH         LINE#         340
  C:07EFH         LINE#         341
  C:07EFH         LINE#         343
  C:0818H         LINE#         344
  C:081EH         LINE#         346
  C:0851H         LINE#         347
  C:087CH         LINE#         348
  C:087CH         LINE#         349
  C:0880H         LINE#         350
  C:0893H         LINE#         351
  C:0895H         LINE#         353
  C:0895H         LINE#         354
  C:0899H         LINE#         355
  C:08CFH         LINE#         356
  C:08CFH         LINE#         357
  C:08CFH         LINE#         358
  C:08D8H         LINE#         360
  C:08DDH         LINE#         361
  C:08DDH         LINE#         362
  C:08E9H         LINE#         363
  C:08F2H         LINE#         364
  C:0905H         LINE#         368
  C:094DH         LINE#         371
  C:0957H         LINE#         372
  C:095CH         LINE#         373
  C:098CH         LINE#         374
  C:09B0H         LINE#         377
  C:09D9H         LINE#         381
  C:09E7H         LINE#         385
  C:09F1H         LINE#         386
  C:09F7H         LINE#         389
  C:09FDH         LINE#         390
  C:09FDH         LINE#         391
  C:0A02H         LINE#         392
  C:0A06H         LINE#         393
  C:0A11H         LINE#         394
  C:0A13H         LINE#         395
  C:0A25H         LINE#         396
  C:0A25H         LINE#         397
  C:0A32H         LINE#         398
  C:0A3FH         LINE#         399
  C:0A47H         LINE#         400
  C:0A47H         LINE#         401
  C:0A50H         LINE#         402
  C:0A50H         LINE#         403
  C:0A5EH         LINE#         404
  C:0A5EH         LINE#         405
  C:0A7CH         LINE#         406
  C:0A7CH         LINE#         407
  C:0A8DH         LINE#         408
  C:0A9AH         LINE#         409
  C:0A9CH         LINE#         411
  C:0A9CH         LINE#         412
BL51 BANKED LINKER/LOCATER V6.22                                                      04/22/2016  18:21:44  PAGE 16


  C:0AACH         LINE#         413
  C:0AB8H         LINE#         414
  C:0AB8H         LINE#         415
  C:0AC0H         LINE#         416
  C:0AC6H         LINE#         417
  C:0ACAH         LINE#         418
  C:0AD0H         LINE#         419
  C:0AD0H         LINE#         421
  C:0AD3H         LINE#         424
  C:0AD9H         LINE#         425
  C:0AD9H         LINE#         426
  C:0ADFH         LINE#         427
  C:0AE4H         LINE#         428
  C:0AE4H         LINE#         430
  C:0AEDH         LINE#         431
  C:0AEDH         LINE#         432
  C:0AF6H         LINE#         434
  C:0B08H         LINE#         435
  C:0B08H         LINE#         436
  C:0B2EH         LINE#         437
  C:0B57H         LINE#         438
  C:0B80H         LINE#         439
  C:0BA7H         LINE#         440
  C:0BB7H         LINE#         442
  C:0BC4H         LINE#         445
  C:0BEDH         LINE#         446
  C:0C16H         LINE#         450
  C:0C3EH         LINE#         451
  C:0C3EH         LINE#         452
  C:0C53H         LINE#         453
  C:0C5DH         LINE#         454
  C:0C60H         LINE#         456
  C:0C60H         LINE#         457
  C:0C86H         LINE#         458
  C:0CADH         LINE#         459
  C:0CC1H         LINE#         460
  C:0CE2H         LINE#         461
  C:0CE2H         LINE#         462
  C:0CE2H         LINE#         463
  C:0CFBH         LINE#         464
  C:0D04H         LINE#         465
  C:0D10H         LINE#         466
  C:0D10H         LINE#         467
  C:0D12H         LINE#         469
  C:0D12H         LINE#         470
  C:0D2FH         LINE#         471
  C:0D44H         LINE#         472
  C:0D50H         LINE#         473
  C:0D64H         LINE#         474
  C:0D67H         LINE#         476
  C:0D67H         LINE#         479
  C:0D91H         LINE#         480
  C:0D91H         LINE#         481
  C:0DAEH         LINE#         482
  C:0DC2H         LINE#         483
  C:0DCBH         LINE#         484
  C:0DDFH         LINE#         485
BL51 BANKED LINKER/LOCATER V6.22                                                      04/22/2016  18:21:44  PAGE 17


  C:0DF3H         LINE#         486
  C:0DFDH         LINE#         487
  C:0E00H         LINE#         492
  C:0E00H         LINE#         495
  C:0E24H         LINE#         496
  C:0E24H         LINE#         497
  C:0E41H         LINE#         498
  C:0E55H         LINE#         499
  C:0E5EH         LINE#         500
  C:0E72H         LINE#         501
  C:0E86H         LINE#         502
  C:0E90H         LINE#         503
  C:0E93H         LINE#         504
  C:0E93H         LINE#         505
  C:0E96H         LINE#         507
  C:0E96H         LINE#         510
  C:0EB2H         LINE#         511
  C:0EB2H         LINE#         512
  C:0ECBH         LINE#         513
  C:0EE2H         LINE#         514
  C:0EEBH         LINE#         515
  C:0EFFH         LINE#         516
  C:0F13H         LINE#         517
  C:0F23H         LINE#         518
  C:0F25H         LINE#         520
  C:0F3BH         LINE#         521
  C:0F3BH         LINE#         522
  C:0F3BH         LINE#         523
  C:0F3BH         LINE#         527
  C:0F44H         LINE#         529
  C:0F49H         LINE#         531
  C:0F49H         LINE#         547
  C:0F4FH         LINE#         551
  C:0F5EH         LINE#         552
  C:0F62H         LINE#         554
  C:0F64H         LINE#         555
  C:0F6AH         LINE#         556
  C:0F72H         LINE#         558
  C:0F77H         LINE#         559
  C:0F7DH         LINE#         560
  C:0F85H         LINE#         562
  C:0F8AH         LINE#         563
  C:0F8DH         LINE#         564
  C:0F94H         LINE#         566
  C:0F99H         LINE#         568
  -------         ENDPROC       GETDATA
  -------         PROC          USERFUNC
  C:0011H         LINE#         584
  C:0011H         LINE#         587
  -------         ENDPROC       USERFUNC
  -------         PROC          CONFSET
  -------         DO            
  X:7B39H         SYMBOL        i
  X:7B3AH         SYMBOL        j
  X:7B3BH         SYMBOL        ilong
  X:7B3CH         SYMBOL        m
  X:7B3DH         SYMBOL        n
BL51 BANKED LINKER/LOCATER V6.22                                                      04/22/2016  18:21:44  PAGE 18


  X:7B3EH         SYMBOL        temp
  -------         ENDDO         
  C:34E1H         LINE#         602
  C:34E1H         LINE#         603
  C:34E1H         LINE#         608
  C:34E9H         LINE#         609
  C:34F1H         LINE#         610
  C:34F9H         LINE#         611
  C:3501H         LINE#         612
  C:3509H         LINE#         613
  C:3511H         LINE#         614
  C:3519H         LINE#         615
  C:352BH         LINE#         616
  C:3535H         LINE#         617
  C:3540H         LINE#         618
  C:3553H         LINE#         620
  C:358FH         LINE#         621
  C:35A5H         LINE#         622
  C:35D9H         LINE#         623
  C:35EFH         LINE#         625
  C:35FFH         LINE#         628
  C:3635H         LINE#         629
  C:3644H         LINE#         630
  C:3672H         LINE#         632
  C:3682H         LINE#         633
  C:368FH         LINE#         634
  C:369CH         LINE#         635
  C:369FH         LINE#         636
  C:36D3H         LINE#         637
  C:36E0H         LINE#         638
  C:36F3H         LINE#         639
  C:36F3H         LINE#         641
  C:3724H         LINE#         642
  C:3729H         LINE#         643
  C:375DH         LINE#         644
  C:376EH         LINE#         645
  C:377AH         LINE#         646
  C:3786H         LINE#         647
  C:3786H         LINE#         648
  C:3786H         LINE#         649
  C:37CDH         LINE#         650
  C:37EAH         LINE#         655
  C:37FCH         LINE#         656
  C:37FCH         LINE#         657
  C:3807H         LINE#         658
  C:380CH         LINE#         661
  C:384CH         LINE#         662
  C:388CH         LINE#         664
  C:38CDH         LINE#         665
  C:390EH         LINE#         666
  C:3917H         LINE#         668
  C:392AH         LINE#         669
  C:392AH         LINE#         670
  C:3937H         LINE#         671
  C:3943H         LINE#         672
  C:3945H         LINE#         674
  C:3945H         LINE#         675
BL51 BANKED LINKER/LOCATER V6.22                                                      04/22/2016  18:21:44  PAGE 19


  C:3953H         LINE#         676
  C:3960H         LINE#         677
  C:3960H         LINE#         682
  C:3969H         LINE#         686
  C:396EH         LINE#         687
  C:396EH         LINE#         689
  C:397EH         LINE#         690
  C:397EH         LINE#         691
  C:399EH         LINE#         692
  C:399EH         LINE#         693
  C:39ABH         LINE#         694
  C:39ADH         LINE#         695
  C:39ADH         LINE#         697
  C:39BCH         LINE#         699
  C:39C4H         LINE#         700
  C:39CEH         LINE#         702
  C:39D3H         LINE#         703
  C:39D3H         LINE#         705
  C:39E3H         LINE#         706
  C:39E3H         LINE#         707
  C:3A03H         LINE#         708
  C:3A03H         LINE#         709
  C:3A10H         LINE#         710
  C:3A12H         LINE#         711
  C:3A12H         LINE#         713
  C:3A21H         LINE#         714
  C:3A29H         LINE#         715
  C:3A33H         LINE#         717
  C:3A48H         LINE#         718
  C:3A5BH         LINE#         726
  C:3A63H         LINE#         727
  -------         ENDPROC       CONFSET
  -------         PROC          USERHDLC
  -------         DO            
  X:7B21H         SYMBOL        i
  X:7B22H         SYMBOL        m
  X:7B23H         SYMBOL        n
  X:7B24H         SYMBOL        temp
  X:7B25H         SYMBOL        addr
  -------         ENDDO         
  C:4B1EH         LINE#         743
  C:4B1EH         LINE#         744
  C:4B1EH         LINE#         748
  C:4B24H         LINE#         749
  C:4B24H         LINE#         750
  C:4B2AH         LINE#         751
  C:4B2AH         LINE#         752
  C:4B2AH         LINE#         753
  C:4B2CH         LINE#         754
  C:4B30H         LINE#         755
  C:4B30H         LINE#         756
  C:4B35H         LINE#         757
  C:4B35H         LINE#         758
  C:4B35H         LINE#         761
  C:4B55H         LINE#         762
  C:4B55H         LINE#         763
  C:4B55H         LINE#         764
BL51 BANKED LINKER/LOCATER V6.22                                                      04/22/2016  18:21:44  PAGE 20


  C:4B61H         LINE#         765
  C:4B61H         LINE#         766
  C:4B75H         LINE#         767
  C:4B78H         LINE#         769
  C:4B94H         LINE#         770
  C:4B94H         LINE#         771
  C:4BA4H         LINE#         772
  C:4BAFH         LINE#         773
  C:4BB8H         LINE#         775
  C:4BCBH         LINE#         776
  C:4BD6H         LINE#         777
  C:4C07H         LINE#         778
  C:4C09H         LINE#         779
  C:4C3AH         LINE#         780
  C:4C3AH         LINE#         781
  C:4C3FH         LINE#         782
  C:4C48H         LINE#         783
  C:4C48H         LINE#         784
  C:4C50H         LINE#         785
  C:4C50H         LINE#         786
  C:4C64H         LINE#         787
  C:4C6BH         LINE#         789
  C:4C87H         LINE#         790
  C:4C87H         LINE#         791
  C:4C97H         LINE#         792
  C:4CA2H         LINE#         793
  C:4CABH         LINE#         795
  C:4CBEH         LINE#         796
  C:4CC9H         LINE#         797
  C:4CFAH         LINE#         798
  C:4CFCH         LINE#         799
  C:4D2DH         LINE#         800
  C:4D2DH         LINE#         801
  C:4D32H         LINE#         802
  C:4D3BH         LINE#         803
  C:4D3BH         LINE#         805
  C:4D3BH         LINE#         807
  C:4D3BH         LINE#         808
  C:4D50H         LINE#         809
  C:4D55H         LINE#         810
  C:4D57H         LINE#         811
  C:4D59H         LINE#         812
  C:4D5DH         LINE#         814
  C:4D62H         LINE#         815
  C:4D90H         LINE#         816
  C:4D96H         LINE#         817
  C:4D97H         LINE#         819
  C:4D97H         LINE#         820
  C:4DADH         LINE#         821
  C:4DB6H         LINE#         822
  C:4DBBH         LINE#         823
  C:4DBDH         LINE#         824
  C:4DBFH         LINE#         825
  C:4DC3H         LINE#         826
  C:4DC8H         LINE#         827
  C:4DF7H         LINE#         828
  C:4DF7H         LINE#         830
BL51 BANKED LINKER/LOCATER V6.22                                                      04/22/2016  18:21:44  PAGE 21


  C:4DF7H         LINE#         831
  C:4DF7H         LINE#         832
  C:4DF9H         LINE#         833
  C:4DF9H         LINE#         837
  C:4DF9H         LINE#         838
  C:4DF9H         LINE#         847
  C:4DF9H         LINE#         848
  C:4DF9H         LINE#         850
  -------         ENDPROC       USERHDLC
  -------         PROC          SELFCONF
  -------         DO            
  X:7B35H         SYMBOL        i
  X:7B37H         SYMBOL        j
  X:7B39H         SYMBOL        ctt
  D:0007H         SYMBOL        ucii
  -------         ENDDO         
  C:43EDH         LINE#         886
  C:43EDH         LINE#         887
  C:43EDH         LINE#         893
  C:43F3H         LINE#         894
  C:43F9H         LINE#         897
  C:440FH         LINE#         898
  C:442EH         LINE#         900
  C:4445H         LINE#         901
  C:4464H         LINE#         903
  C:447BH         LINE#         904
  C:449AH         LINE#         906
  C:44A4H         LINE#         909
  C:44BBH         LINE#         910
  C:44DAH         LINE#         911
  C:44F1H         LINE#         912
  C:4510H         LINE#         921
  C:4516H         LINE#         926
  C:451DH         LINE#         927
  C:454DH         LINE#         928
  C:4564H         LINE#         929
  C:4564H         LINE#         930
  C:4570H         LINE#         932
  C:4580H         LINE#         940
  C:4586H         LINE#         941
  C:458BH         LINE#         943
  C:4593H         LINE#         944
  C:459CH         LINE#         946
  C:45A2H         LINE#         947
  C:45A6H         LINE#         948
  C:45AAH         LINE#         949
  C:45AEH         LINE#         950
  C:45B2H         LINE#         952
  C:45B6H         LINE#         956
  C:45BCH         LINE#         958
  C:45C2H         LINE#         959
  C:45C6H         LINE#         960
  C:45CAH         LINE#         961
  C:45CEH         LINE#         962
  C:45D2H         LINE#         963
  C:45D5H         LINE#         964
  C:45DAH         LINE#         965
BL51 BANKED LINKER/LOCATER V6.22                                                      04/22/2016  18:21:44  PAGE 22


  C:45DFH         LINE#         967
  C:45E3H         LINE#         968
  C:45E7H         LINE#         969
  C:45EAH         LINE#         970
  C:45EEH         LINE#         971
  C:45F2H         LINE#         973
  C:45F5H         LINE#         974
  C:45F9H         LINE#         976
  C:45FEH         LINE#         977
  C:4600H         LINE#         978
  C:4602H         LINE#         979
  C:4606H         LINE#         980
  C:4608H         LINE#         981
  C:460AH         LINE#         982
  C:460EH         LINE#         983
  C:4612H         LINE#         984
  C:4614H         LINE#         985
  C:4617H         LINE#         986
  C:461BH         LINE#         987
  C:461DH         LINE#         988
  C:4620H         LINE#         989
  C:4622H         LINE#         990
  C:4624H         LINE#         996
  C:462AH         LINE#         997
  C:462AH         LINE#         998
  C:4631H         LINE#         999
  C:4631H         LINE#         1000
  C:4662H         LINE#         1001
  C:467DH         LINE#         1002
  C:4697H         LINE#         1003
  C:46B4H         LINE#         1005
  C:46BAH         LINE#         1006
  C:46BEH         LINE#         1008
  C:46C4H         LINE#         1009
  C:46C8H         LINE#         1011
  C:46CEH         LINE#         1012
  C:46D2H         LINE#         1015
  C:46D9H         LINE#         1016
  C:46D9H         LINE#         1017
  C:46E0H         LINE#         1018
  C:46E0H         LINE#         1019
  C:4711H         LINE#         1020
  C:472CH         LINE#         1021
  C:4746H         LINE#         1022
  C:4763H         LINE#         1024
  C:477AH         LINE#         1025
  C:477AH         LINE#         1026
  C:4797H         LINE#         1027
  C:47A8H         LINE#         1028
  C:47B8H         LINE#         1029
  -------         ENDPROC       SELFCONF
  -------         PROC          INITIOSW1021
  -------         DO            
  X:7B35H         SYMBOL        i
  X:7B37H         SYMBOL        j
  X:7B39H         SYMBOL        m
  X:7B3AH         SYMBOL        n
BL51 BANKED LINKER/LOCATER V6.22                                                      04/22/2016  18:21:44  PAGE 23


  -------         ENDDO         
  C:3A64H         LINE#         1046
  C:3A64H         LINE#         1047
  C:3A64H         LINE#         1051
  C:3A69H         LINE#         1053
  C:3A82H         LINE#         1054
  C:3A82H         LINE#         1055
  C:3A96H         LINE#         1056
  C:3A9BH         LINE#         1057
  C:3AB1H         LINE#         1063
  C:3ABDH         LINE#         1064
  C:3ACAH         LINE#         1066
  C:3AD7H         LINE#         1068
  C:3AE4H         LINE#         1071
  C:3AF0H         LINE#         1072
  C:3AFCH         LINE#         1075
  C:3B03H         LINE#         1076
  C:3B54H         LINE#         1078
  C:3B60H         LINE#         1084
  C:3B6DH         LINE#         1085
  C:3B7AH         LINE#         1086
  C:3B87H         LINE#         1092
  C:3B94H         LINE#         1095
  C:3C03H         LINE#         1096
  C:3C79H         LINE#         1097
  C:3CEFH         LINE#         1098
  C:3D65H         LINE#         1101
  C:3D82H         LINE#         1103
  C:3D99H         LINE#         1104
  C:3DA4H         LINE#         1106
  C:3DB5H         LINE#         1109
  C:3DBCH         LINE#         1110
  C:3DBCH         LINE#         1111
  C:3DD3H         LINE#         1112
  C:3DE1H         LINE#         1113
  C:3DFBH         LINE#         1114
  C:3DFBH         LINE#         1115
  C:3E02H         LINE#         1116
  C:3E02H         LINE#         1117
  C:3E2AH         LINE#         1118
  C:3E54H         LINE#         1120
  C:3E7FH         LINE#         1121
  C:3EA6H         LINE#         1122
  C:3EA9H         LINE#         1124
  C:3EA9H         LINE#         1126
  C:3ED1H         LINE#         1127
  C:3EF9H         LINE#         1129
  C:3F22H         LINE#         1130
  C:3F4BH         LINE#         1131
  C:3F4BH         LINE#         1132
  C:3F5CH         LINE#         1133
  C:3F7CH         LINE#         1135
  C:3F7EH         LINE#         1136
  C:3F80H         LINE#         1137
  C:3F82H         LINE#         1138
  C:3F84H         LINE#         1139
  C:3F86H         LINE#         1140
BL51 BANKED LINKER/LOCATER V6.22                                                      04/22/2016  18:21:44  PAGE 24


  C:3F8CH         LINE#         1142
  -------         ENDPROC       INITIOSW1021
  -------         PROC          CHECKSW1021INIT
  -------         DO            
  X:7B35H         SYMBOL        ret
  D:0002H         SYMBOL        i
  X:7B37H         SYMBOL        j
  D:0004H         SYMBOL        reg
  C:604DH         SYMBOL        quit
  -------         ENDDO         
  C:5F59H         LINE#         1156
  C:5F59H         LINE#         1157
  C:5F59H         LINE#         1158
  C:5F60H         LINE#         1161
  C:5F62H         LINE#         1162
  C:5F62H         LINE#         1163
  C:5F74H         LINE#         1164
  C:5F7AH         LINE#         1165
  C:5F7AH         LINE#         1166
  C:5F7DH         LINE#         1167
  C:5F7DH         LINE#         1168
  C:5F8FH         LINE#         1169
  C:5F95H         LINE#         1170
  C:5F95H         LINE#         1171
  C:5F98H         LINE#         1172
  C:5F98H         LINE#         1174
  C:5FA8H         LINE#         1175
  C:5FABH         LINE#         1176
  C:5FABH         LINE#         1177
  C:5FADH         LINE#         1178
  C:5FADH         LINE#         1180
  C:5FBDH         LINE#         1181
  C:5FC0H         LINE#         1182
  C:5FC0H         LINE#         1183
  C:5FC2H         LINE#         1184
  C:5FC2H         LINE#         1186
  C:5FDBH         LINE#         1187
  C:601FH         LINE#         1188
  C:6025H         LINE#         1189
  C:602DH         LINE#         1190
  C:602FH         LINE#         1191
  C:602FH         LINE#         1192
  C:603FH         LINE#         1194
  C:604DH         LINE#         1195
  C:604DH         LINE#         1196
  C:6055H         LINE#         1197
  -------         ENDPROC       CHECKSW1021INIT
  -------         PROC          MAIN
  -------         DO            
  D:0007H         SYMBOL        i
  X:7B33H         SYMBOL        ret
  -------         ENDDO         
  C:63F9H         LINE#         1212
  C:63F9H         LINE#         1213
  C:63F9H         LINE#         1215
  C:6400H         LINE#         1218
  C:6403H         LINE#         1220
BL51 BANKED LINKER/LOCATER V6.22                                                      04/22/2016  18:21:44  PAGE 25


  C:640EH         LINE#         1221
  C:6411H         LINE#         1222
  C:6414H         LINE#         1224
  C:6414H         LINE#         1225
  C:6414H         LINE#         1230
  C:641AH         LINE#         1239
  C:6425H         LINE#         1240
  C:6428H         LINE#         1241
  C:642BH         LINE#         1242
  C:642EH         LINE#         1243
  C:6431H         LINE#         1244
  C:6431H         LINE#         1246
  C:6434H         LINE#         1247
  C:6437H         LINE#         1249
  C:6440H         LINE#         1250
  C:6440H         LINE#         1251
  C:6443H         LINE#         1252
  C:6445H         LINE#         1253
  C:6445H         LINE#         1254
  C:646AH         LINE#         1255
  C:648FH         LINE#         1256
  C:64B4H         LINE#         1257
  C:64B9H         LINE#         1258
  C:64BCH         LINE#         1259
  C:64C1H         LINE#         1260
  C:64C1H         LINE#         1262
  C:64C4H         LINE#         1263
  -------         ENDPROC       MAIN
  -------         ENDMOD        GF2488_01F1_E1_RST

  -------         MODULE        TIMER
  C:0000H         SYMBOL        _ICE_DUMMY_
  D:0090H         PUBLIC        P1
  D:00B0H         PUBLIC        P3
  C:6056H         PUBLIC        TimerIntep
  X:7B9DH         PUBLIC        g_LampEn
  X:7B9EH         SYMBOL        g_ucTenMs
  D:00A8H         PUBLIC        IE
  D:00C7H         PUBLIC        TA
  D:00B8H         PUBLIC        IP
  C:6F1EH         PUBLIC        TimerInit
  X:7B9FH         PUBLIC        g_SecondFlag
  X:7BA0H         PUBLIC        g_QuarterFlag
  D:0088H         PUBLIC        TCON
  X:7BA1H         SYMBOL        ucInActTime
  B:00C8H.7       PUBLIC        TF2
  X:7BA2H         PUBLIC        g_ulResetSec
  D:00E8H         PUBLIC        EIE
  X:7BA6H         PUBLIC        g_stuSysClock
  D:00F8H         PUBLIC        EIP
  D:0098H         PUBLIC        SCON0
  D:00C0H         PUBLIC        SCON1
  D:00C8H         PUBLIC        T2CON
  C:7062H         PUBLIC        _Delay
  D:00D0H         PUBLIC        PSW
  D:00D8H         PUBLIC        WDCON
  B:00D8H.0       PUBLIC        RWT
BL51 BANKED LINKER/LOCATER V6.22                                                      04/22/2016  18:21:44  PAGE 26


  C:0006H         SYMBOL        Com0013
  C:0006H         SYMBOL        L?0020
  C:0006H         SYMBOL        L?0021
  -------         PROC          COM0013
  -------         ENDPROC       COM0013
  -------         PROC          TIMERINTEP
  C:6056H         LINE#         37
  C:606CH         LINE#         39
  C:606EH         LINE#         41
  C:6074H         LINE#         42
  C:6081H         LINE#         43
  C:6081H         LINE#         45
  C:6087H         LINE#         46
  C:6087H         LINE#         48
  C:6089H         LINE#         54
  C:6089H         LINE#         57
  C:608CH         LINE#         60
  C:6094H         LINE#         61
  C:6094H         LINE#         62
  C:6098H         LINE#         63
  C:609BH         LINE#         64
  C:60A1H         LINE#         65
  C:60C0H         LINE#         67
  C:60C6H         LINE#         68
  C:60C6H         LINE#         69
  C:60D1H         LINE#         70
  C:60D1H         LINE#         71
  C:60D3H         LINE#         72
  C:60D7H         LINE#         74
  C:60DCH         LINE#         76
  C:60E1H         LINE#         77
  C:60E4H         LINE#         78
  C:60E4H         LINE#         79
  C:60E6H         LINE#         81
  C:60E6H         LINE#         82
  C:60EBH         LINE#         83
  C:60EFH         LINE#         84
  C:60F4H         LINE#         85
  C:60F4H         LINE#         87
  C:60FCH         LINE#         88
  C:60FCH         LINE#         89
  C:60FDH         LINE#         90
  C:6103H         LINE#         92
  C:610DH         LINE#         93
  C:6114H         LINE#         94
  C:6117H         LINE#         95
  C:611CH         LINE#         97
  C:6125H         LINE#         98
  C:6125H         LINE#         99
  C:6127H         LINE#         100
  C:612DH         LINE#         101
  C:6133H         LINE#         102
  C:6133H         LINE#         103
  C:6135H         LINE#         104
  C:613BH         LINE#         105
  C:613BH         LINE#         106
  C:613BH         LINE#         107
BL51 BANKED LINKER/LOCATER V6.22                                                      04/22/2016  18:21:44  PAGE 27


  C:613BH         LINE#         108
  C:613BH         LINE#         109
  C:613BH         LINE#         111
  C:613EH         LINE#         132
  -------         ENDPROC       TIMERINTEP
  -------         PROC          TIMERINIT
  C:6F1EH         LINE#         148
  C:6F1EH         LINE#         149
  C:6F1EH         LINE#         171
  C:6F24H         LINE#         172
  C:6F28H         LINE#         173
  C:6F2CH         LINE#         174
  C:6F30H         LINE#         175
  C:6F33H         LINE#         176
  C:6F35H         LINE#         177
  C:6F37H         LINE#         179
  C:6F3BH         LINE#         180
  C:6F3DH         LINE#         181
  C:6F41H         LINE#         182
  C:6F43H         LINE#         184
  C:6F4DH         LINE#         185
  C:6F52H         LINE#         187
  C:6F56H         LINE#         192
  -------         ENDPROC       TIMERINIT
  -------         PROC          _DELAY
  D:0007H         SYMBOL        uc10ms
  -------         DO            
  D:0006H         SYMBOL        ucLastTime
  -------         ENDDO         
  C:7062H         LINE#         208
  C:7062H         LINE#         209
  C:7062H         LINE#         212
  C:7067H         LINE#         213
  C:706DH         LINE#         214
  C:706DH         LINE#         216
  C:7075H         LINE#         217
  C:7075H         LINE#         218
  C:707DH         LINE#         220
  C:7080H         LINE#         222
  C:7081H         LINE#         223
  C:7083H         LINE#         224
  C:7083H         LINE#         225
  C:7085H         LINE#         226
  -------         ENDPROC       _DELAY
  -------         ENDMOD        TIMER

  -------         MODULE        COMM
  C:0000H         SYMBOL        _ICE_DUMMY_
  D:0090H         PUBLIC        P1
  X:76DEH         PUBLIC        g_AllClrFlag
  B:0023H.1       SYMBOL        ResetFlag
  D:00B0H         PUBLIC        P3
  B:0023H.2       SYMBOL        updateFlag
  D:00A5H         PUBLIC        P4
  C:70B7H         PUBLIC        RESET
  X:76DFH         SYMBOL        usiCrcTemp
  B:00A8H.7       PUBLIC        EA
BL51 BANKED LINKER/LOCATER V6.22                                                      04/22/2016  18:21:44  PAGE 28


  X:76E1H         PUBLIC        sysErrCode
  B:0023H.3       PUBLIC        HotBoot_f
  C:67B6H         SYMBOL        _ReadBctHead
  D:00A8H         PUBLIC        IE
  C:6EA7H         PUBLIC        JumpToAux
  B:0023H.4       SYMBOL        isRecOK
  X:76E2H         SYMBOL        PmCodeCRC
  D:00C7H         PUBLIC        TA
  C:4E30H         PUBLIC        LibDate
  D:00B8H         PUBLIC        IP
  X:76E4H         SYMBOL        g_ConfChange
  C:6A9EH         SYMBOL        _ProgBakFlash
  D:0021H         PUBLIC        outport
  B:0023H.5       SYMBOL        isBakRun
  C:4E45H         PUBLIC        crc_table
  C:54B7H         SYMBOL        softUpdate
  C:6D62H         PUBLIC        _Check_SST_39VF
  B:0021H.1       PUBLIC        HOLD
  B:0021H.6       PUBLIC        LSCE
  C:4E3CH         PUBLIC        LibTime
  C:0F9AH         PUBLIC        ProcCmd
  C:6FC4H         PUBLIC        BootInit
  X:76E5H         PUBLIC        g_buffcom
  C:5045H         PUBLIC        ProcAlmData
  C:690CH         SYMBOL        copyFlash
  D:0087H         PUBLIC        PCON
  X:7AFFH         PUBLIC        pfOtherCMD
  D:0088H         PUBLIC        TCON
  C:58DCH         PUBLIC        ProcHisData
  D:009FH         PUBLIC        CHPCON
  C:6B0CH         SYMBOL        RamTest
  X:7B02H         SYMBOL        g_FileIndex
  C:4E29H         PUBLIC        LibVer
  B:0023H.6       PUBLIC        ispFlag
  X:7B06H         PUBLIC        g_ReqConfig
  D:00CDH         PUBLIC        TH2
  C:6BDFH         PUBLIC        CommVarInit
  C:5ABBH         PUBLIC        _VerShow
  C:6E13H         PUBLIC        _CRCCCITT
  D:00CCH         PUBLIC        TL2
  D:00E8H         PUBLIC        EIE
  C:6C45H         SYMBOL        _Program_One_Byte
  B:0021H.4       PUBLIC        ACT
  B:00C8H.2       PUBLIC        TR2
  C:3F8DH         SYMBOL        _downSoft
  B:0021H.3       PUBLIC        RED
  X:7B07H         SYMBOL        g_stuHisTime
  C:6CAAH         PUBLIC        _ProgramAPROM
  B:0021H.2       PUBLIC        YELLOW
  D:00F8H         PUBLIC        EIP
  X:7B0BH         PUBLIC        g_ucSetTime
  X:7B0CH         SYMBOL        g_CrcValue
  X:7B0EH         SYMBOL        LineCodeCRC
  X:7B10H         SYMBOL        g_HisDataReady
  C:6F57H         SYMBOL        _EraseFlash
  C:6EE4H         SYMBOL        ispInit
  D:0098H         PUBLIC        SCON0
BL51 BANKED LINKER/LOCATER V6.22                                                      04/22/2016  18:21:44  PAGE 29


  D:00C0H         PUBLIC        SCON1
  D:00C8H         PUBLIC        T2CON
  X:7B11H         SYMBOL        memErrCode
  X:7B12H         SYMBOL        ispType
  X:7B13H         SYMBOL        AlmCodeCRC
  C:6A1BH         SYMBOL        _ReadFpgaHead
  C:7086H         PUBLIC        _EraseAPROM
  D:00ADH         PUBLIC        SFRAH
  D:00AEH         PUBLIC        SFRFD
  C:6DBDH         PUBLIC        _MemCRC
  D:00ACH         PUBLIC        SFRAL
  D:00D0H         PUBLIC        PSW
  D:00D8H         PUBLIC        WDCON
  B:00D8H.0       PUBLIC        RWT
  D:00AFH         PUBLIC        SFRCN
  C:2F51H         SYMBOL        Com018B
  C:2F51H         SYMBOL        L?0396
  C:2F52H         SYMBOL        L?0397
  C:2F56H         SYMBOL        L?0398
  C:2F74H         SYMBOL        L?0399
  C:2F77H         SYMBOL        L?0400
  C:2F7FH         SYMBOL        L?0401
  C:2F7FH         SYMBOL        L?0402
  C:2F80H         SYMBOL        L?0403
  C:2F83H         SYMBOL        L?0404
  C:2F86H         SYMBOL        L?0405
  C:2F87H         SYMBOL        L?0406
  C:2F8BH         SYMBOL        L?0407
  C:2F94H         SYMBOL        L?0408
  C:3006H         SYMBOL        L?0409
  C:3007H         SYMBOL        L?0410
  C:3008H         SYMBOL        L?0411
  C:3013H         SYMBOL        L?0412
  C:301CH         SYMBOL        L?0413
  C:3032H         SYMBOL        L?0414
  C:3033H         SYMBOL        L?0415
  C:3034H         SYMBOL        L?0416
  C:305FH         SYMBOL        L?0417
  C:3071H         SYMBOL        L?0418
  C:308CH         SYMBOL        L?0419
  C:3096H         SYMBOL        L?0420
  C:3098H         SYMBOL        L?0421
  C:3099H         SYMBOL        L?0422
  C:309AH         SYMBOL        L?0423
  C:309DH         SYMBOL        L?0424
  C:30A4H         SYMBOL        L?0425
  C:30A4H         SYMBOL        L?0426
  C:30A9H         SYMBOL        L?0427
  C:30BDH         SYMBOL        L?0428
  C:30C0H         SYMBOL        L?0429
  C:30C4H         SYMBOL        L?0430
  C:30D0H         SYMBOL        L?0433
  C:30D4H         SYMBOL        L?0434
  C:30DCH         SYMBOL        L?0435
  C:30E3H         SYMBOL        L?0436
  C:30FCH         SYMBOL        L?0437
  C:310AH         SYMBOL        L?0438
BL51 BANKED LINKER/LOCATER V6.22                                                      04/22/2016  18:21:44  PAGE 30


  C:3113H         SYMBOL        L?0439
  C:3128H         SYMBOL        L?0440
  C:312BH         SYMBOL        L?0441
  C:312EH         SYMBOL        L?0442
  C:3136H         SYMBOL        L?0443
  C:3139H         SYMBOL        L?0444
  C:313DH         SYMBOL        L?0445
  C:3141H         SYMBOL        L?0446
  C:314AH         SYMBOL        L?0447
  C:314AH         SYMBOL        L?0448
  C:3153H         SYMBOL        L?0449
  C:3156H         SYMBOL        L?0450
  C:315FH         SYMBOL        L?0451
  C:316AH         SYMBOL        L?0452
  C:316AH         SYMBOL        L?0453
  C:3174H         SYMBOL        L?0454
  C:317BH         SYMBOL        L?0455
  C:318AH         SYMBOL        L?0456
  C:3198H         SYMBOL        L?0457
  C:3198H         SYMBOL        L?0458
  C:31A4H         SYMBOL        L?0459
  C:31ACH         SYMBOL        L?0460
  C:31ACH         SYMBOL        L?0461
  C:31B1H         SYMBOL        L?0462
  C:31B9H         SYMBOL        L?0463
  C:31B9H         SYMBOL        L?0464
  C:31BCH         SYMBOL        L?0465
  C:31C5H         SYMBOL        L?0466
  C:31C5H         SYMBOL        L?0467
  C:31DCH         SYMBOL        L?0468
  C:31EDH         SYMBOL        L?0469
  C:31F7H         SYMBOL        L?0470
  C:31FAH         SYMBOL        L?0471
  C:320EH         SYMBOL        L?0472
  C:3220H         SYMBOL        L?0474
  C:322BH         SYMBOL        L?0475
  C:3232H         SYMBOL        L?0476
  C:3232H         SYMBOL        L?0477
  C:3238H         SYMBOL        L?0478
  C:3241H         SYMBOL        L?0479
  C:3258H         SYMBOL        L?0480
  C:325EH         SYMBOL        L?0481
  C:327EH         SYMBOL        L?0482
  C:327EH         SYMBOL        L?0483
  C:3290H         SYMBOL        L?0484
  C:3294H         SYMBOL        L?0485
  C:32A1H         SYMBOL        L?0486
  C:32A1H         SYMBOL        L?0487
  C:32AAH         SYMBOL        L?0488
  C:32AAH         SYMBOL        L?0489
  C:32B2H         SYMBOL        L?0490
  C:32B9H         SYMBOL        L?0491
  C:32B9H         SYMBOL        L?0492
  C:32C5H         SYMBOL        L?0493
  C:32D8H         SYMBOL        L?0494
  C:32D8H         SYMBOL        L?0495
  C:32DBH         SYMBOL        L?0496
BL51 BANKED LINKER/LOCATER V6.22                                                      04/22/2016  18:21:44  PAGE 31


  C:32E5H         SYMBOL        L?0497
  C:32ECH         SYMBOL        L?0498
  C:32F4H         SYMBOL        L?0499
  C:32F6H         SYMBOL        L?0500
  C:3304H         SYMBOL        L?0503
  C:330AH         SYMBOL        L?0504
  C:3315H         SYMBOL        L?0505
  C:3315H         SYMBOL        L?0506
  C:3318H         SYMBOL        L?0507
  C:331EH         SYMBOL        L?0508
  C:331EH         SYMBOL        L?0509
  C:332CH         SYMBOL        L?0510
  C:332EH         SYMBOL        L?0511
  C:3335H         SYMBOL        L?0512
  C:3349H         SYMBOL        L?0513
  C:334AH         SYMBOL        L?0514
  C:334BH         SYMBOL        L?0515
  C:3352H         SYMBOL        L?0516
  C:3352H         SYMBOL        L?0517
  C:335BH         SYMBOL        L?0518
  C:335EH         SYMBOL        L?0519
  C:3365H         SYMBOL        L?0520
  C:3365H         SYMBOL        L?0521
  C:336CH         SYMBOL        L?0522
  C:336CH         SYMBOL        L?0523
  C:3377H         SYMBOL        L?0524
  C:3377H         SYMBOL        L?0525
  C:3382H         SYMBOL        L?0526
  C:3388H         SYMBOL        L?0527
  C:338FH         SYMBOL        L?0528
  C:338FH         SYMBOL        L?0529
  C:3396H         SYMBOL        L?0530
  C:3398H         SYMBOL        L?0531
  C:33A1H         SYMBOL        L?0532
  C:33A2H         SYMBOL        L?0533
  C:33A8H         SYMBOL        L?0534
  C:33A9H         SYMBOL        L?0535
  C:33AFH         SYMBOL        L?0536
  C:33AFH         SYMBOL        L?0537
  C:33B8H         SYMBOL        L?0538
  C:33B8H         SYMBOL        L?0539
  C:33C1H         SYMBOL        L?0540
  C:33CEH         SYMBOL        L?0541
  C:33DBH         SYMBOL        L?0542
  C:33DBH         SYMBOL        L?0543
  C:33E1H         SYMBOL        L?0544
  C:33E1H         SYMBOL        L?0545
  C:33E8H         SYMBOL        L?0546
  C:33F5H         SYMBOL        L?0547
  C:3402H         SYMBOL        L?0548
  C:3403H         SYMBOL        L?0549
  C:340BH         SYMBOL        L?0550
  C:340EH         SYMBOL        L?0551
  C:3415H         SYMBOL        L?0552
  C:3415H         SYMBOL        L?0553
  C:341CH         SYMBOL        L?0554
  C:341CH         SYMBOL        L?0555
BL51 BANKED LINKER/LOCATER V6.22                                                      04/22/2016  18:21:44  PAGE 32


  C:3423H         SYMBOL        L?0556
  C:3423H         SYMBOL        L?0557
  C:342AH         SYMBOL        L?0558
  C:342AH         SYMBOL        L?0559
  C:3431H         SYMBOL        L?0560
  C:3439H         SYMBOL        L?0561
  C:3445H         SYMBOL        L?0562
  C:3445H         SYMBOL        L?0563
  C:344DH         SYMBOL        L?0564
  C:344DH         SYMBOL        L?0565
  C:3455H         SYMBOL        L?0566
  C:3460H         SYMBOL        L?0567
  C:346BH         SYMBOL        L?0568
  C:3476H         SYMBOL        L?0569
  C:3481H         SYMBOL        L?0570
  C:348BH         SYMBOL        L?0571
  C:3496H         SYMBOL        L?0572
  C:3497H         SYMBOL        L?0573
  C:349EH         SYMBOL        L?0574
  C:349FH         SYMBOL        L?0575
  C:34A6H         SYMBOL        L?0577
  C:34A6H         SYMBOL        L?0578
  C:34ADH         SYMBOL        L?0579
  C:34ADH         SYMBOL        L?0580
  C:34B4H         SYMBOL        L?0581
  C:34B4H         SYMBOL        L?0582
  C:34BBH         SYMBOL        L?0583
  C:34BBH         SYMBOL        L?0584
  C:34C2H         SYMBOL        L?0585
  C:34C2H         SYMBOL        L?0586
  C:34C9H         SYMBOL        L?0587
  C:34D3H         SYMBOL        L?0588
  C:34D3H         SYMBOL        L?0589
  C:34DAH         SYMBOL        L?0590
  C:34DAH         SYMBOL        L?0591
  -------         PROC          COM018B
  -------         ENDPROC       COM018B
  C:6855H         SYMBOL        L?0501
  -------         PROC          _READBCTHEAD
  X:7B26H         SYMBOL        pHead
  C:67B6H         LINE#         138
  C:67BCH         LINE#         139
  C:67BCH         LINE#         145
  C:67CAH         LINE#         146
  C:67CAH         LINE#         147
  C:67E2H         LINE#         148
  C:67E2H         LINE#         150
  C:67E2H         LINE#         151
  C:67F0H         LINE#         153
  C:680CH         LINE#         154
  C:6828H         LINE#         155
  C:6838H         LINE#         156
  C:6848H         LINE#         157
  C:6854H         LINE#         158
  C:6854H         LINE#         160
  -------         ENDPROC       _READBCTHEAD
  -------         PROC          _CHECK_SST_39VF
BL51 BANKED LINKER/LOCATER V6.22                                                      04/22/2016  18:21:44  PAGE 33


  D:0007H         SYMBOL        ucIC
  -------         DO            
  D:0004H         SYMBOL        ucSstID
  D:0003H         SYMBOL        ucSstCap
  -------         ENDDO         
  C:6D62H         LINE#         179
  C:6D62H         LINE#         180
  C:6D62H         LINE#         183
  C:6D6CH         LINE#         185
  C:6D6CH         LINE#         186
  C:6D6CH         LINE#         187
  C:6D6CH         LINE#         188
  C:6D6CH         LINE#         189
  C:6D71H         LINE#         190
  C:6D73H         LINE#         192
  C:6D7DH         LINE#         194
  C:6D80H         LINE#         195
  C:6D82H         LINE#         196
  C:6D84H         LINE#         198
  C:6D87H         LINE#         200
  C:6D8DH         LINE#         202
  C:6D92H         LINE#         204
  C:6D9AH         LINE#         205
  C:6D9CH         LINE#         206
  C:6DA0H         LINE#         207
  C:6DA0H         LINE#         208
  C:6DA5H         LINE#         209
  C:6DABH         LINE#         211
  C:6DB0H         LINE#         213
  C:6DBAH         LINE#         215
  C:6DBCH         LINE#         216
  -------         ENDPROC       _CHECK_SST_39VF
  -------         PROC          _READFPGAHEAD
  D:0001H         SYMBOL        pHead
  D:0005H         SYMBOL        ucIC
  -------         DO            
  X:7B26H         SYMBOL        i
  X:7B28H         SYMBOL        FlashAddr
  -------         ENDDO         
  C:6A1BH         LINE#         230
  C:6A1BH         LINE#         231
  C:6A1BH         LINE#         235
  C:6A1EH         LINE#         236
  C:6A1EH         LINE#         237
  C:6A28H         LINE#         238
  C:6A28H         LINE#         239
  C:6A2CH         LINE#         240
  C:6A2CH         LINE#         241
  C:6A36H         LINE#         242
  C:6A36H         LINE#         244
  C:6A36H         LINE#         245
  C:6A39H         LINE#         246
  C:6A39H         LINE#         248
  C:6A43H         LINE#         249
  C:6A4DH         LINE#         250
  C:6A54H         LINE#         251
  C:6A54H         LINE#         252
BL51 BANKED LINKER/LOCATER V6.22                                                      04/22/2016  18:21:44  PAGE 34


  C:6A67H         LINE#         253
  C:6A6EH         LINE#         254
  C:6A75H         LINE#         255
  C:6A81H         LINE#         256
  C:6A9BH         LINE#         257
  C:6A9DH         LINE#         258
  -------         ENDPROC       _READFPGAHEAD
  -------         PROC          ISPINIT
  C:6EE4H         LINE#         273
  C:6EE4H         LINE#         274
  C:6EE4H         LINE#         276
  C:6EE6H         LINE#         277
  C:6EE8H         LINE#         278
  C:6EEAH         LINE#         279
  C:6EECH         LINE#         281
  C:6EF4H         LINE#         282
  C:6EFEH         LINE#         284
  C:6F00H         LINE#         285
  C:6F05H         LINE#         288
  C:6F0EH         LINE#         291
  C:6F1DH         LINE#         292
  -------         ENDPROC       ISPINIT
  C:70A6H         SYMBOL        L?0432
  -------         PROC          L?0431
  -------         ENDPROC       L?0431
  C:70A6H         SYMBOL        L?0432
  -------         PROC          RESET
  C:70B7H         LINE#         303
  C:70B7H         LINE#         304
  C:70B7H         LINE#         306
  C:70BAH         LINE#         307
  -------         ENDPROC       RESET
  -------         PROC          _ERASEFLASH
  D:0007H         SYMBOL        ucIC
  C:6F57H         LINE#         335
  C:6F57H         LINE#         336
  C:6F57H         LINE#         337
  C:6F61H         LINE#         339
  C:6F61H         LINE#         340
  C:6F61H         LINE#         342
  C:6F61H         LINE#         343
  C:6F61H         LINE#         345
  C:6F66H         LINE#         346
  C:6F68H         LINE#         348
  C:6F6FH         LINE#         349
  C:6F72H         LINE#         351
  C:6F76H         LINE#         352
  C:6F76H         LINE#         354
  C:6F7BH         LINE#         355
  C:6F81H         LINE#         357
  C:6F87H         LINE#         359
  C:6F8CH         LINE#         361
  C:6F8EH         LINE#         362
  -------         ENDPROC       _ERASEFLASH
  -------         PROC          _PROGRAM_ONE_BYTE
  D:0007H         SYMBOL        ucIC
  D:0005H         SYMBOL        ucSrcByte
BL51 BANKED LINKER/LOCATER V6.22                                                      04/22/2016  18:21:44  PAGE 35


  X:7B50H         SYMBOL        FlashAddr
  -------         DO            
  D:0005H         SYMBOL        ucPreData
  D:0006H         SYMBOL        ucCurrData
  D:0007H         SYMBOL        ucTimeOut
  -------         ENDDO         
  C:6C45H         LINE#         376
  C:6C45H         LINE#         377
  C:6C45H         LINE#         382
  C:6C4FH         LINE#         384
  C:6C56H         LINE#         385
  C:6C59H         LINE#         387
  C:6C5CH         LINE#         388
  C:6C5CH         LINE#         390
  C:6C61H         LINE#         391
  C:6C67H         LINE#         393
  C:6C6FH         LINE#         395
  C:6C82H         LINE#         396
  C:6C87H         LINE#         400
  C:6C89H         LINE#         401
  C:6C8DH         LINE#         403
  C:6C96H         LINE#         404
  C:6C96H         LINE#         405
  C:6C9DH         LINE#         406
  C:6CA0H         LINE#         407
  C:6CA0H         LINE#         408
  C:6CA3H         LINE#         409
  C:6CA3H         LINE#         410
  C:6CA5H         LINE#         411
  C:6CA7H         LINE#         412
  C:6CA9H         LINE#         413
  -------         ENDPROC       _PROGRAM_ONE_BYTE
  -------         PROC          _PROGBAKFLASH
  X:7B43H         SYMBOL        pSour
  X:7B46H         SYMBOL        dstAddr
  X:7B4AH         SYMBOL        length
  C:6A9EH         LINE#         426
  C:6AA4H         LINE#         427
  C:6AA4H         LINE#         428
  C:6AB1H         LINE#         429
  C:6AB1H         LINE#         430
  C:6AD7H         LINE#         431
  C:6AD7H         LINE#         432
  C:6ADEH         LINE#         433
  C:6AE1H         LINE#         434
  C:6AE1H         LINE#         436
  C:6AEDH         LINE#         437
  C:6AF7H         LINE#         439
  C:6B06H         LINE#         440
  C:6B09H         LINE#         442
  C:6B0BH         LINE#         443
  -------         ENDPROC       _PROGBAKFLASH
  -------         PROC          COPYFLASH
  X:7B43H         SYMBOL        FlashAddr
  X:7B47H         SYMBOL        length
  -------         DO            
  X:7B4BH         SYMBOL        val_tmp
BL51 BANKED LINKER/LOCATER V6.22                                                      04/22/2016  18:21:44  PAGE 36


  -------         ENDDO         
  C:690CH         LINE#         456
  C:690CH         LINE#         457
  C:690CH         LINE#         460
  C:691DH         LINE#         461
  C:691DH         LINE#         462
  C:6920H         LINE#         464
  C:6926H         LINE#         465
  C:6939H         LINE#         466
  C:6941H         LINE#         468
  C:6969H         LINE#         469
  C:6969H         LINE#         470
  C:6970H         LINE#         471
  C:6973H         LINE#         472
  C:6973H         LINE#         474
  C:697FH         LINE#         475
  C:698EH         LINE#         476
  C:6991H         LINE#         477
  C:6993H         LINE#         478
  -------         ENDPROC       COPYFLASH
  -------         PROC          JUMPTOAUX
  C:6EA7H         LINE#         495
  C:6EA7H         LINE#         496
  C:6EA7H         LINE#         506
  C:6EAAH         LINE#         508
  C:6EBEH         LINE#         509
  C:6ECDH         LINE#         511
  C:6ED0H         LINE#         512
  C:6ED3H         LINE#         513
  C:6ED6H         LINE#         515
  C:6ED8H         LINE#         516
  C:6EDBH         LINE#         517
  C:6EDEH         LINE#         518
  C:6EE0H         LINE#         520
  C:6EE3H         LINE#         521
  -------         ENDPROC       JUMPTOAUX
  -------         PROC          _PROGRAMAPROM
  D:0001H         SYMBOL        pSour
  X:7B46H         SYMBOL        dstAddr
  X:7B48H         SYMBOL        length
  -------         DO            
  D:0007H         SYMBOL        TmpIE
  -------         ENDDO         
  C:6CAAH         LINE#         534
  C:6CAAH         LINE#         535
  C:6CAAH         LINE#         538
  C:6CACH         LINE#         540
  C:6CAFH         LINE#         541
  C:6CB2H         LINE#         542
  C:6CB4H         LINE#         544
  C:6CC3H         LINE#         545
  C:6CC3H         LINE#         546
  C:6CC8H         LINE#         547
  C:6CCEH         LINE#         548
  C:6CD2H         LINE#         550
  C:6CD5H         LINE#         551
  C:6CD8H         LINE#         552
BL51 BANKED LINKER/LOCATER V6.22                                                      04/22/2016  18:21:44  PAGE 37


  C:6CDAH         LINE#         553
  C:6CDDH         LINE#         555
  C:6CDFH         LINE#         557
  C:6CE6H         LINE#         558
  C:6CF1H         LINE#         559
  C:6CFFH         LINE#         560
  C:6D01H         LINE#         562
  C:6D03H         LINE#         564
  C:6D05H         LINE#         565
  -------         ENDPROC       _PROGRAMAPROM
  -------         PROC          _ERASEAPROM
  D:0007H         SYMBOL        uctemp
  -------         DO            
  D:0007H         SYMBOL        TmpIE
  -------         ENDDO         
  C:7086H         LINE#         581
  C:7086H         LINE#         582
  C:7086H         LINE#         585
  C:7089H         LINE#         586
  C:708CH         LINE#         587
  C:708FH         LINE#         588
  C:7091H         LINE#         590
  C:7093H         LINE#         591
  C:7095H         LINE#         592
  C:7098H         LINE#         593
  C:709BH         LINE#         594
  C:709EH         LINE#         595
  C:70A0H         LINE#         596
  C:70A3H         LINE#         598
  C:70A5H         LINE#         599
  -------         ENDPROC       _ERASEAPROM
  -------         PROC          _CRCCCITT
  X:7B26H         SYMBOL        dat
  X:7B29H         SYMBOL        length
  X:7B2BH         SYMBOL        crc
  -------         DO            
  D:0004H         SYMBOL        temp
  -------         ENDDO         
  C:6E13H         LINE#         667
  C:6E1CH         LINE#         668
  C:6E1CH         LINE#         671
  C:6E2BH         LINE#         672
  C:6E2BH         LINE#         673
  C:6E3DH         LINE#         674
  C:6E4AH         LINE#         675
  C:6E58H         LINE#         676
  C:6E5AH         LINE#         677
  C:6E62H         LINE#         678
  -------         ENDPROC       _CRCCCITT
  -------         PROC          SOFTUPDATE
  -------         DO            
  X:7B39H         SYMBOL        dataLen
  X:7B3BH         SYMBOL        tmp_ul
  -------         DO            
  X:7B3FH         SYMBOL        progAddr
  X:7B3FH         SYMBOL        progAddr
  -------         ENDDO         
BL51 BANKED LINKER/LOCATER V6.22                                                      04/22/2016  18:21:44  PAGE 38


  -------         DO            
  X:7B3FH         SYMBOL        progAddr
  -------         ENDDO         
  -------         ENDDO         
  C:54B7H         LINE#         691
  C:54B7H         LINE#         692
  C:54B7H         LINE#         704
  C:54BAH         LINE#         705
  C:54BAH         LINE#         706
  C:54C1H         LINE#         708
  C:54C6H         LINE#         710
  C:54D0H         LINE#         712
  C:54E5H         LINE#         713
  C:54E5H         LINE#         714
  C:54EFH         LINE#         716
  C:5505H         LINE#         717
  C:5505H         LINE#         718
  C:5509H         LINE#         719
  C:550CH         LINE#         720
  C:550CH         LINE#         721
  C:550CH         LINE#         723
  C:550EH         LINE#         724
  C:5511H         LINE#         726
  C:5511H         LINE#         728
  C:5519H         LINE#         729
  C:5521H         LINE#         731
  C:552DH         LINE#         732
  C:552DH         LINE#         735
  C:5539H         LINE#         736
  C:5539H         LINE#         737
  C:5542H         LINE#         738
  C:5542H         LINE#         739
  C:5549H         LINE#         740
  C:554CH         LINE#         741
  C:5556H         LINE#         742
  C:5556H         LINE#         743
  C:555DH         LINE#         744
  C:5560H         LINE#         746
  C:5560H         LINE#         747
  C:5565H         LINE#         749
  C:556CH         LINE#         752
  C:556CH         LINE#         753
  C:556CH         LINE#         755
  C:5576H         LINE#         756
  C:558CH         LINE#         757
  C:558CH         LINE#         758
  C:558FH         LINE#         760
  C:558FH         LINE#         762
  C:5599H         LINE#         763
  C:55BFH         LINE#         764
  C:55BFH         LINE#         765
  C:55C2H         LINE#         767
  C:55C2H         LINE#         768
  C:55C2H         LINE#         769
  C:55C2H         LINE#         770
  C:55C5H         LINE#         772
  C:55C5H         LINE#         773
BL51 BANKED LINKER/LOCATER V6.22                                                      04/22/2016  18:21:44  PAGE 39


  C:55CEH         LINE#         774
  C:55E7H         LINE#         775
  C:55E7H         LINE#         776
  C:55EAH         LINE#         778
  C:55EAH         LINE#         779
  C:55F3H         LINE#         781
  C:55F9H         LINE#         782
  C:55F9H         LINE#         783
  C:5601H         LINE#         784
  C:5601H         LINE#         785
  C:5603H         LINE#         786
  C:5606H         LINE#         788
  C:5606H         LINE#         789
  C:560EH         LINE#         790
  C:560EH         LINE#         791
  C:5610H         LINE#         792
  C:5616H         LINE#         793
  C:5616H         LINE#         794
  C:5616H         LINE#         795
  C:5616H         LINE#         796
  C:5619H         LINE#         798
  C:5624H         LINE#         799
  C:5624H         LINE#         802
  C:562DH         LINE#         803
  C:562DH         LINE#         804
  C:5632H         LINE#         807
  C:5632H         LINE#         808
  C:5632H         LINE#         810
  C:563BH         LINE#         811
  C:564DH         LINE#         813
  C:5654H         LINE#         814
  C:5679H         LINE#         816
  C:567FH         LINE#         817
  C:5681H         LINE#         819
  C:5681H         LINE#         820
  C:5697H         LINE#         821
  C:56AFH         LINE#         823
  C:56B8H         LINE#         825
  C:56BBH         LINE#         826
  C:56BBH         LINE#         827
  C:56C5H         LINE#         828
  C:56C8H         LINE#         829
  C:56C8H         LINE#         830
  C:56C8H         LINE#         831
  C:56C8H         LINE#         834
  C:56CAH         LINE#         835
  -------         ENDPROC       SOFTUPDATE
  -------         PROC          _DOWNSOFT
  X:7B21H         SYMBOL        pSour
  X:7B24H         SYMBOL        length
  C:3F8DH         LINE#         846
  C:3F96H         LINE#         847
  C:3F96H         LINE#         848
  C:3F99H         LINE#         849
  C:3F99H         LINE#         850
  C:3FA8H         LINE#         852
  C:3FA8H         LINE#         854
BL51 BANKED LINKER/LOCATER V6.22                                                      04/22/2016  18:21:44  PAGE 40


  C:3FBEH         LINE#         858
  C:3FDDH         LINE#         860
  C:3FDDH         LINE#         861
  C:3FDDH         LINE#         862
  C:3FDDH         LINE#         864
  C:3FEDH         LINE#         865
  C:3FEDH         LINE#         866
  C:3FF5H         LINE#         868
  C:3FF5H         LINE#         870
  C:4007H         LINE#         871
  C:4007H         LINE#         872
  C:400FH         LINE#         874
  C:400FH         LINE#         876
  C:4017H         LINE#         877
  C:4017H         LINE#         878
  C:4039H         LINE#         879
  C:4039H         LINE#         880
  C:4048H         LINE#         882
  C:4048H         LINE#         884
  C:4057H         LINE#         885
  C:4057H         LINE#         886
  C:405FH         LINE#         888
  C:405FH         LINE#         890
  C:406BH         LINE#         892
  C:4073H         LINE#         893
  C:4073H         LINE#         894
  C:407AH         LINE#         895
  C:407AH         LINE#         896
  C:4086H         LINE#         898
  C:4086H         LINE#         900
  C:4098H         LINE#         901
  C:4098H         LINE#         902
  C:40A7H         LINE#         904
  C:40A7H         LINE#         906
  C:40ADH         LINE#         908
  C:40B0H         LINE#         909
  C:40BEH         LINE#         910
  C:40BEH         LINE#         911
  C:40C6H         LINE#         912
  C:40C6H         LINE#         913
  C:40D2H         LINE#         915
  C:40D2H         LINE#         917
  C:40D7H         LINE#         918
  C:40D7H         LINE#         919
  C:40E3H         LINE#         921
  C:40E3H         LINE#         923
  C:40F5H         LINE#         924
  C:40F5H         LINE#         925
  C:4104H         LINE#         927
  C:4104H         LINE#         929
  C:410CH         LINE#         930
  C:410EH         LINE#         932
  C:410EH         LINE#         933
  C:411AH         LINE#         935
  C:411AH         LINE#         938
  C:413AH         LINE#         939
  C:413AH         LINE#         940
BL51 BANKED LINKER/LOCATER V6.22                                                      04/22/2016  18:21:44  PAGE 41


  C:4146H         LINE#         941
  C:4149H         LINE#         942
  C:415CH         LINE#         943
  C:415CH         LINE#         944
  C:4161H         LINE#         945
  C:4164H         LINE#         947
  C:4164H         LINE#         948
  C:416CH         LINE#         949
  C:416CH         LINE#         950
  C:4178H         LINE#         951
  C:417BH         LINE#         952
  C:4199H         LINE#         953
  C:4199H         LINE#         954
  C:419BH         LINE#         955
  C:419EH         LINE#         956
  C:41A0H         LINE#         957
  C:41A0H         LINE#         965
  C:41A3H         LINE#         966
  C:41BDH         LINE#         967
  C:41BDH         LINE#         968
  C:41C2H         LINE#         969
  C:41C2H         LINE#         970
  C:41CEH         LINE#         971
  C:41CEH         LINE#         972
  C:41D6H         LINE#         974
  C:41D6H         LINE#         975
  C:41DEH         LINE#         976
  C:41EEH         LINE#         977
  C:41F6H         LINE#         978
  C:41FEH         LINE#         980
  C:4208H         LINE#         981
  C:4208H         LINE#         983
  C:4218H         LINE#         984
  C:4218H         LINE#         985
  C:4224H         LINE#         987
  C:4224H         LINE#         989
  C:4239H         LINE#         990
  C:4239H         LINE#         991
  C:4259H         LINE#         992
  C:4281H         LINE#         994
  C:428AH         LINE#         996
  C:4291H         LINE#         997
  C:4291H         LINE#         998
  C:429CH         LINE#         999
  C:429CH         LINE#         1000
  C:429EH         LINE#         1001
  C:42A0H         LINE#         1002
  C:42ACH         LINE#         1003
  C:42AFH         LINE#         1005
  C:42AFH         LINE#         1006
  C:42BBH         LINE#         1007
  C:42BBH         LINE#         1008
  C:42BEH         LINE#         1010
  C:42BEH         LINE#         1011
  C:42C0H         LINE#         1012
  C:42C0H         LINE#         1013
  C:42C1H         LINE#         1014
BL51 BANKED LINKER/LOCATER V6.22                                                      04/22/2016  18:21:44  PAGE 42


  C:42D3H         LINE#         1015
  C:42D3H         LINE#         1016
  C:42EAH         LINE#         1017
  C:42F2H         LINE#         1019
  C:42F7H         LINE#         1020
  C:42FAH         LINE#         1021
  C:430FH         LINE#         1022
  C:431BH         LINE#         1023
  C:431EH         LINE#         1024
  C:432AH         LINE#         1025
  C:432DH         LINE#         1027
  C:432DH         LINE#         1028
  C:4336H         LINE#         1030
  C:433CH         LINE#         1031
  C:433CH         LINE#         1032
  C:433EH         LINE#         1033
  C:4343H         LINE#         1034
  C:4345H         LINE#         1035
  C:4345H         LINE#         1036
  C:4346H         LINE#         1038
  C:4346H         LINE#         1039
  C:4350H         LINE#         1040
  C:4350H         LINE#         1041
  C:4356H         LINE#         1042
  C:4358H         LINE#         1043
  C:435AH         LINE#         1044
  C:435BH         LINE#         1045
  C:4364H         LINE#         1046
  C:4367H         LINE#         1048
  C:4367H         LINE#         1049
  C:4370H         LINE#         1050
  C:437AH         LINE#         1051
  C:4382H         LINE#         1053
  C:438FH         LINE#         1055
  C:4396H         LINE#         1056
  C:4396H         LINE#         1057
  C:43A2H         LINE#         1058
  C:43A2H         LINE#         1060
  C:43A2H         LINE#         1061
  C:43A9H         LINE#         1062
  C:43A9H         LINE#         1063
  C:43B2H         LINE#         1064
  C:43B2H         LINE#         1065
  C:43B4H         LINE#         1066
  C:43C8H         LINE#         1067
  C:43C8H         LINE#         1069
  C:43D4H         LINE#         1070
  C:43DDH         LINE#         1071
  C:43DDH         LINE#         1072
  C:43DDH         LINE#         1073
  C:43DDH         LINE#         1075
  C:43DDH         LINE#         1076
  C:43ECH         LINE#         1078
  C:43ECH         LINE#         1079
  -------         ENDPROC       _DOWNSOFT
  C:5C79H         SYMBOL        L?0502
  -------         PROC          _VERSHOW
BL51 BANKED LINKER/LOCATER V6.22                                                      04/22/2016  18:21:44  PAGE 43


  X:7B21H         SYMBOL        pSour
  X:7B24H         SYMBOL        pTarget
  -------         DO            
  X:7B27H         SYMBOL        ucTempLen
  X:7B28H         SYMBOL        ucTemp
  -------         ENDDO         
  C:5ABBH         LINE#         46
  C:5AC1H         LINE#         47
  C:5AC1H         LINE#         50
  C:5AC6H         LINE#         51
  C:5ADBH         LINE#         52
  C:5AE1H         LINE#         53
  C:5AE6H         LINE#         54
  C:5B08H         LINE#         55
  C:5B08H         LINE#         56
  C:5B10H         LINE#         57
  C:5B13H         LINE#         59
  C:5B22H         LINE#         60
  C:5B29H         LINE#         61
  C:5B2FH         LINE#         62
  C:5B39H         LINE#         63
  C:5B3FH         LINE#         64
  C:5B49H         LINE#         65
  C:5B50H         LINE#         66
  C:5B5AH         LINE#         67
  C:5B61H         LINE#         68
  C:5B6DH         LINE#         70
  C:5B6DH         LINE#         71
  C:5B70H         LINE#         73
  C:5B7FH         LINE#         74
  C:5B86H         LINE#         75
  C:5B8DH         LINE#         76
  C:5B97H         LINE#         77
  C:5B9EH         LINE#         78
  C:5BA8H         LINE#         79
  C:5BAFH         LINE#         80
  C:5BB9H         LINE#         81
  C:5BC0H         LINE#         82
  C:5BCCH         LINE#         84
  C:5BCCH         LINE#         85
  C:5BCFH         LINE#         87
  C:5BE0H         LINE#         88
  C:5BE7H         LINE#         89
  C:5BECH         LINE#         90
  C:5C0EH         LINE#         91
  C:5C0EH         LINE#         92
  C:5C16H         LINE#         93
  C:5C19H         LINE#         95
  C:5C2AH         LINE#         96
  C:5C31H         LINE#         97
  C:5C42H         LINE#         98
  C:5C63H         LINE#         99
  C:5C63H         LINE#         101
  C:5C6BH         LINE#         102
  C:5C73H         LINE#         104
  C:5C78H         LINE#         105
  -------         ENDPROC       _VERSHOW
BL51 BANKED LINKER/LOCATER V6.22                                                      04/22/2016  18:21:44  PAGE 44


  -------         PROC          _MEMCRC
  X:7B39H         SYMBOL        ucDat
  X:7B3CH         SYMBOL        len
  -------         DO            
  X:7B3EH         SYMBOL        usCrc
  D:0004H         SYMBOL        temp
  -------         ENDDO         
  C:6DBDH         LINE#         117
  C:6DC6H         LINE#         118
  C:6DC6H         LINE#         121
  C:6DCCH         LINE#         123
  C:6DDBH         LINE#         124
  C:6DDBH         LINE#         125
  C:6DEDH         LINE#         126
  C:6DFAH         LINE#         127
  C:6E08H         LINE#         128
  C:6E0AH         LINE#         129
  C:6E12H         LINE#         130
  -------         ENDPROC       _MEMCRC
  -------         PROC          RAMTEST
  -------         DO            
  D:001AH         SYMBOL        i
  -------         ENDDO         
  C:6B0CH         LINE#         142
  C:6B0CH         LINE#         143
  C:6B0CH         LINE#         144
  C:6B0CH         LINE#         145
  C:6B12H         LINE#         146
  C:6B14H         LINE#         147
  C:6B1AH         LINE#         148
  C:6B1FH         LINE#         149
  C:6B1FH         LINE#         150
  C:6B2DH         LINE#         151
  C:6B3EH         LINE#         154
  C:6B40H         LINE#         155
  C:6B46H         LINE#         157
  C:6B4BH         LINE#         158
  C:6B4BH         LINE#         159
  C:6B59H         LINE#         160
  C:6B6AH         LINE#         162
  C:6B70H         LINE#         163
  C:6B76H         LINE#         164
  -------         ENDPROC       RAMTEST
  -------         PROC          COMMVARINIT
  C:6BDFH         LINE#         178
  C:6BDFH         LINE#         179
  C:6BDFH         LINE#         180
  C:6BE2H         LINE#         183
  C:6BE7H         LINE#         184
  C:6BE9H         LINE#         185
  C:6BEBH         LINE#         186
  C:6BEFH         LINE#         188
  C:6BF2H         LINE#         189
  C:6BF8H         LINE#         190
  C:6BFDH         LINE#         192
  C:6C01H         LINE#         193
  C:6C05H         LINE#         195
BL51 BANKED LINKER/LOCATER V6.22                                                      04/22/2016  18:21:44  PAGE 45


  C:6C10H         LINE#         199
  C:6C23H         LINE#         201
  C:6C23H         LINE#         202
  C:6C2AH         LINE#         203
  C:6C32H         LINE#         204
  C:6C32H         LINE#         206
  C:6C38H         LINE#         207
  C:6C3EH         LINE#         208
  C:6C44H         LINE#         209
  -------         ENDPROC       COMMVARINIT
  -------         PROC          BOOTINIT
  C:6FC4H         LINE#         224
  C:6FC4H         LINE#         225
  C:6FC4H         LINE#         226
  C:6FC7H         LINE#         235
  C:6FCAH         LINE#         236
  C:6FCDH         LINE#         240
  C:6FD0H         LINE#         241
  C:6FD3H         LINE#         242
  C:6FD9H         LINE#         279
  C:6FDCH         LINE#         281
  C:6FDFH         LINE#         283
  C:6FE2H         LINE#         284
  C:6FE5H         LINE#         287
  C:6FE8H         LINE#         288
  C:6FEAH         LINE#         291
  C:6FEDH         LINE#         292
  -------         ENDPROC       BOOTINIT
  -------         PROC          PROCALMDATA
  -------         DO            
  X:7B35H         SYMBOL        ucRed
  X:7B36H         SYMBOL        ucYellow
  -------         DO            
  X:7B37H         SYMBOL        i
  -------         ENDDO         
  -------         ENDDO         
  C:5045H         LINE#         313
  C:5045H         LINE#         314
  C:5045H         LINE#         318
  C:504BH         LINE#         319
  C:5054H         LINE#         320
  C:5054H         LINE#         321
  C:505AH         LINE#         322
  C:505AH         LINE#         323
  C:505AH         LINE#         324
  C:505DH         LINE#         325
  C:505FH         LINE#         326
  C:5067H         LINE#         327
  C:5067H         LINE#         329
  C:507FH         LINE#         330
  C:508DH         LINE#         331
  C:50A2H         LINE#         333
  C:50A8H         LINE#         334
  C:50A8H         LINE#         336
  C:50ABH         LINE#         338
  C:50B2H         LINE#         339
  C:50B2H         LINE#         340
BL51 BANKED LINKER/LOCATER V6.22                                                      04/22/2016  18:21:44  PAGE 46


  C:50B4H         LINE#         341
  C:50B7H         LINE#         343
  C:50BAH         LINE#         344
  C:50BAH         LINE#         346
  C:50BDH         LINE#         347
  C:50BDH         LINE#         348
  C:50C0H         LINE#         350
  C:50C3H         LINE#         351
  C:50C3H         LINE#         353
  C:50C9H         LINE#         354
  C:50CBH         LINE#         356
  C:50D8H         LINE#         357
  C:50D8H         LINE#         360
  C:50F0H         LINE#         361
  C:50F0H         LINE#         362
  C:50FEH         LINE#         363
  C:50FEH         LINE#         364
  C:5121H         LINE#         365
  C:5121H         LINE#         366
  C:5137H         LINE#         367
  C:5137H         LINE#         368
  C:5137H         LINE#         369
  C:5137H         LINE#         370
  C:513CH         LINE#         371
  C:513EH         LINE#         372
  C:513EH         LINE#         373
  C:5143H         LINE#         374
  C:5145H         LINE#         375
  C:5145H         LINE#         376
  C:5145H         LINE#         377
  C:5145H         LINE#         378
  C:514BH         LINE#         379
  C:514BH         LINE#         380
  C:514BH         LINE#         381
  C:514EH         LINE#         382
  C:514EH         LINE#         383
  C:5150H         LINE#         384
  C:515EH         LINE#         385
  C:515EH         LINE#         387
  C:5177H         LINE#         388
  C:5177H         LINE#         389
  C:5180H         LINE#         390
  C:5180H         LINE#         391
  C:5180H         LINE#         392
  C:5188H         LINE#         393
  C:5194H         LINE#         394
  C:5194H         LINE#         395
  C:51A3H         LINE#         396
  C:51AEH         LINE#         397
  C:51AEH         LINE#         398
  C:51C1H         LINE#         399
  C:51D1H         LINE#         400
  C:51D1H         LINE#         401
  C:51D1H         LINE#         402
  C:51D4H         LINE#         403
  C:51D4H         LINE#         404
  C:51DDH         LINE#         405
BL51 BANKED LINKER/LOCATER V6.22                                                      04/22/2016  18:21:44  PAGE 47


  C:51E4H         LINE#         406
  C:51E4H         LINE#         407
  C:5201H         LINE#         408
  C:5211H         LINE#         409
  C:5213H         LINE#         411
  C:5213H         LINE#         412
  C:5228H         LINE#         413
  C:523AH         LINE#         414
  C:524AH         LINE#         415
  C:524AH         LINE#         416
  C:524CH         LINE#         417
  C:524CH         LINE#         418
  C:5252H         LINE#         419
  C:5252H         LINE#         420
  C:5252H         LINE#         421
  C:5255H         LINE#         422
  C:5255H         LINE#         423
  C:5255H         LINE#         424
  C:5266H         LINE#         425
  C:5266H         LINE#         427
  C:5270H         LINE#         428
  C:5275H         LINE#         430
  C:527FH         LINE#         431
  C:5284H         LINE#         433
  C:5287H         LINE#         434
  -------         ENDPROC       PROCALMDATA
  C:5AB0H         SYMBOL        L?0576
  -------         PROC          PROCHISDATA
  -------         DO            
  D:0006H         SYMBOL        i
  -------         ENDDO         
  C:58DCH         LINE#         450
  C:58DCH         LINE#         451
  C:58DCH         LINE#         452
  C:58DCH         LINE#         454
  C:58DFH         LINE#         456
  C:58F5H         LINE#         457
  C:58F5H         LINE#         458
  C:58FBH         LINE#         459
  C:58FBH         LINE#         460
  C:58FBH         LINE#         461
  C:58FEH         LINE#         462
  C:58FEH         LINE#         464
  C:5910H         LINE#         465
  C:5910H         LINE#         466
  C:5916H         LINE#         467
  C:5916H         LINE#         468
  C:5916H         LINE#         469
  C:5919H         LINE#         470
  C:5919H         LINE#         472
  C:592FH         LINE#         473
  C:592FH         LINE#         474
  C:5935H         LINE#         475
  C:5935H         LINE#         476
  C:5935H         LINE#         477
  C:5938H         LINE#         478
  C:5938H         LINE#         480
BL51 BANKED LINKER/LOCATER V6.22                                                      04/22/2016  18:21:44  PAGE 48


  C:593BH         LINE#         482
  C:5940H         LINE#         484
  C:5948H         LINE#         485
  C:5958H         LINE#         487
  C:595AH         LINE#         488
  C:595AH         LINE#         489
  C:5960H         LINE#         490
  C:596FH         LINE#         491
  C:5971H         LINE#         492
  C:5973H         LINE#         494
  C:5973H         LINE#         495
  C:597DH         LINE#         496
  C:5985H         LINE#         497
  C:5985H         LINE#         499
  C:5995H         LINE#         500
  C:5995H         LINE#         501
  C:59A8H         LINE#         502
  C:59AFH         LINE#         503
  C:59B6H         LINE#         505
  C:59C9H         LINE#         506
  C:59C9H         LINE#         507
  C:59D9H         LINE#         508
  C:59E9H         LINE#         509
  C:59F9H         LINE#         510
  C:5A09H         LINE#         511
  C:5A19H         LINE#         512
  C:5A28H         LINE#         513
  C:5A35H         LINE#         516
  C:5A3DH         LINE#         517
  C:5A45H         LINE#         518
  C:5A4DH         LINE#         519
  C:5A54H         LINE#         521
  C:5A5DH         LINE#         522
  C:5A67H         LINE#         524
  C:5A6CH         LINE#         526
  C:5A7CH         LINE#         527
  C:5A7CH         LINE#         528
  C:5A82H         LINE#         529
  C:5A8BH         LINE#         530
  C:5A8DH         LINE#         532
  C:5A8DH         LINE#         533
  C:5A92H         LINE#         534
  C:5A9AH         LINE#         535
  C:5A9AH         LINE#         536
  C:5AA2H         LINE#         538
  C:5AA7H         LINE#         539
  C:5AACH         LINE#         541
  C:5AAFH         LINE#         542
  -------         ENDPROC       PROCHISDATA
  C:18B2H         SYMBOL        L?0473
  C:18D0H         SYMBOL        L?0592
  -------         PROC          PROCCMD
  -------         DO            
  X:7B15H         SYMBOL        TempLen
  -------         DO            
  X:7B17H         SYMBOL        i
  -------         ENDDO         
BL51 BANKED LINKER/LOCATER V6.22                                                      04/22/2016  18:21:44  PAGE 49


  -------         DO            
  X:7B17H         SYMBOL        i
  X:7B19H         SYMBOL        usLineSp
  X:7B1BH         SYMBOL        ucLastLineCode
  X:7B1CH         SYMBOL        ucLineAlmNum
  X:7B1DH         SYMBOL        ucLineCode
  X:7B17H         SYMBOL        i
  X:7B19H         SYMBOL        usLineSp
  X:7B1BH         SYMBOL        ucLastLineCode
  X:7B1CH         SYMBOL        ucLinePmNum
  X:7B1DH         SYMBOL        ucLineCode
  -------         DO            
  X:7B1EH         SYMBOL        ucAlmType
  -------         ENDDO         
  -------         DO            
  X:7B1EH         SYMBOL        ucTemp
  X:7B1FH         SYMBOL        ucAlmType
  X:7B20H         SYMBOL        ucAlmCode
  -------         ENDDO         
  -------         ENDDO         
  -------         DO            
  X:7B17H         SYMBOL        i
  X:7B19H         SYMBOL        usLineSp
  X:7B1BH         SYMBOL        ucLastLineCode
  X:7B1CH         SYMBOL        ucLinePmNum
  X:7B1DH         SYMBOL        ucLineCode
  -------         ENDDO         
  -------         ENDDO         
  C:0F9AH         LINE#         562
  C:0F9AH         LINE#         563
  C:0F9AH         LINE#         564
  C:0F9AH         LINE#         566
  C:0F9DH         LINE#         568
  C:0FA4H         LINE#         570
  C:0FA7H         LINE#         571
  C:0FAAH         LINE#         572
  C:0FACH         LINE#         573
  C:0FAEH         LINE#         575
  C:0FBFH         LINE#         576
  C:0FBFH         LINE#         577
  C:0FC6H         LINE#         578
  C:0FD6H         LINE#         579
  C:0FD9H         LINE#         581
  C:0FD9H         LINE#         582
  C:0FDEH         LINE#         584
  C:0FF1H         LINE#         585
  C:0FF1H         LINE#         586
  C:0FFEH         LINE#         587
  C:0FFEH         LINE#         588
  C:0FFEH         LINE#         603
  C:1013H         LINE#         605
  C:1013H         LINE#         607
  C:101BH         LINE#         608
  C:1023H         LINE#         610
  C:102CH         LINE#         612
  C:1040H         LINE#         614
  C:1040H         LINE#         617
BL51 BANKED LINKER/LOCATER V6.22                                                      04/22/2016  18:21:44  PAGE 50


  C:1043H         LINE#         619
  C:1043H         LINE#         622
  C:1051H         LINE#         623
  C:105EH         LINE#         625
  C:1066H         LINE#         626
  C:106AH         LINE#         627
  C:1073H         LINE#         628
  C:107BH         LINE#         630
  C:1084H         LINE#         632
  C:1088H         LINE#         633
  C:1094H         LINE#         634
  C:109FH         LINE#         636
  C:10A7H         LINE#         638
  C:10AFH         LINE#         640
  C:10B7H         LINE#         642
  C:10C4H         LINE#         644
  C:10CEH         LINE#         645
  C:10D0H         LINE#         647
  C:10D0H         LINE#         648
  C:10D3H         LINE#         649
  C:10D3H         LINE#         650
  C:10D3H         LINE#         651
  C:10E7H         LINE#         652
  C:10E7H         LINE#         653
  C:10F3H         LINE#         654
  C:10F9H         LINE#         655
  C:1106H         LINE#         656
  C:110CH         LINE#         657
  C:1115H         LINE#         658
  C:1121H         LINE#         660
  C:1125H         LINE#         661
  C:112BH         LINE#         663
  C:113AH         LINE#         665
  C:1142H         LINE#         666
  C:1142H         LINE#         667
  C:1144H         LINE#         668
  C:114CH         LINE#         670
  C:115BH         LINE#         671
  C:115BH         LINE#         672
  C:1161H         LINE#         673
  C:1164H         LINE#         674
  C:116DH         LINE#         675
  C:116DH         LINE#         676
  C:1197H         LINE#         677
  C:1197H         LINE#         678
  C:1197H         LINE#         679
  C:1197H         LINE#         680
  C:11A6H         LINE#         682
  C:11A6H         LINE#         683
  C:11AFH         LINE#         684
  C:11AFH         LINE#         687
  C:11B7H         LINE#         688
  C:11BFH         LINE#         689
  C:11C7H         LINE#         690
  C:11CFH         LINE#         691
  C:11D8H         LINE#         692
  C:11E1H         LINE#         693
BL51 BANKED LINKER/LOCATER V6.22                                                      04/22/2016  18:21:44  PAGE 51


  C:11E9H         LINE#         695
  C:1205H         LINE#         696
  C:120BH         LINE#         698
  C:120EH         LINE#         699
  C:120EH         LINE#         700
  C:120EH         LINE#         701
  C:1211H         LINE#         703
  C:1211H         LINE#         704
  C:1223H         LINE#         706
  C:1223H         LINE#         708
  C:122CH         LINE#         710
  C:123FH         LINE#         711
  C:1245H         LINE#         712
  C:1245H         LINE#         713
  C:1248H         LINE#         715
  C:1248H         LINE#         716
  C:1254H         LINE#         717
  C:1256H         LINE#         718
  C:1259H         LINE#         720
  C:1259H         LINE#         721
  C:126CH         LINE#         723
  C:126CH         LINE#         726
  C:1271H         LINE#         728
  C:1293H         LINE#         730
  C:1293H         LINE#         731
  C:1293H         LINE#         733
  C:1293H         LINE#         734
  C:129DH         LINE#         736
  C:12A0H         LINE#         737
  C:12A0H         LINE#         738
  C:12A3H         LINE#         739
  C:12A6H         LINE#         741
  C:12A6H         LINE#         742
  C:12B5H         LINE#         743
  C:12B5H         LINE#         749
  C:12BEH         LINE#         750
  C:12BEH         LINE#         751
  C:12BEH         LINE#         752
  C:12BEH         LINE#         753
  C:12BEH         LINE#         755
  C:12BEH         LINE#         757
  C:12CCH         LINE#         758
  C:12CCH         LINE#         761
  C:12DCH         LINE#         762
  C:12DCH         LINE#         763
  C:12EFH         LINE#         764
  C:12F5H         LINE#         765
  C:12FAH         LINE#         766
  C:12FAH         LINE#         767
  C:12FFH         LINE#         768
  C:12FFH         LINE#         769
  C:1302H         LINE#         770
  C:1305H         LINE#         771
  C:1305H         LINE#         773
  C:1305H         LINE#         774
  C:130DH         LINE#         775
  C:130DH         LINE#         776
BL51 BANKED LINKER/LOCATER V6.22                                                      04/22/2016  18:21:44  PAGE 52


  C:1310H         LINE#         777
  C:1310H         LINE#         779
  C:1318H         LINE#         780
  C:1318H         LINE#         781
  C:131BH         LINE#         782
  C:131EH         LINE#         783
  C:131EH         LINE#         785
  C:131EH         LINE#         786
  C:1326H         LINE#         787
  C:1326H         LINE#         789
  C:1329H         LINE#         790
  C:133EH         LINE#         791
  C:1350H         LINE#         792
  C:135FH         LINE#         793
  C:1370H         LINE#         794
  C:1370H         LINE#         795
  C:1370H         LINE#         796
  C:1377H         LINE#         797
  C:1379H         LINE#         798
  C:1379H         LINE#         799
  C:1380H         LINE#         800
  C:1382H         LINE#         801
  C:1382H         LINE#         802
  C:1389H         LINE#         803
  C:138BH         LINE#         804
  C:138BH         LINE#         805
  C:1392H         LINE#         806
  C:1392H         LINE#         807
  C:1392H         LINE#         808
  C:1397H         LINE#         809
  C:1397H         LINE#         810
  C:13A2H         LINE#         812
  C:13A9H         LINE#         813
  C:13A9H         LINE#         814
  C:13ACH         LINE#         815
  C:13B2H         LINE#         816
  C:13B5H         LINE#         817
  C:13B8H         LINE#         818
  C:13BBH         LINE#         820
  C:13BBH         LINE#         821
  C:13C1H         LINE#         822
  C:13C1H         LINE#         823
  C:13C9H         LINE#         824
  C:13D0H         LINE#         825
  C:13D3H         LINE#         827
  C:13D3H         LINE#         828
  C:13D3H         LINE#         829
  C:13D3H         LINE#         830
  C:13D3H         LINE#         832
  C:13D3H         LINE#         834
  C:13E1H         LINE#         835
  C:13E1H         LINE#         838
  C:13E7H         LINE#         839
  C:13ECH         LINE#         840
  C:13ECH         LINE#         841
  C:13F1H         LINE#         842
  C:13F1H         LINE#         843
BL51 BANKED LINKER/LOCATER V6.22                                                      04/22/2016  18:21:44  PAGE 53


  C:13F1H         LINE#         844
  C:13F1H         LINE#         845
  C:13F1H         LINE#         847
  C:13F1H         LINE#         848
  C:13F9H         LINE#         849
  C:13F9H         LINE#         850
  C:13FCH         LINE#         851
  C:13FCH         LINE#         853
  C:1406H         LINE#         854
  C:1406H         LINE#         855
  C:140BH         LINE#         856
  C:140BH         LINE#         857
  C:140BH         LINE#         859
  C:140BH         LINE#         860
  C:1413H         LINE#         861
  C:1413H         LINE#         863
  C:1418H         LINE#         864
  C:142EH         LINE#         865
  C:143DH         LINE#         867
  C:145BH         LINE#         868
  C:145BH         LINE#         869
  C:1470H         LINE#         870
  C:1470H         LINE#         871
  C:1473H         LINE#         872
  C:1482H         LINE#         873
  C:1488H         LINE#         874
  C:148EH         LINE#         875
  C:149DH         LINE#         876
  C:14AFH         LINE#         877
  C:14BDH         LINE#         878
  C:14C3H         LINE#         879
  C:14C3H         LINE#         880
  C:14C3H         LINE#         882
  C:14D2H         LINE#         883
  C:14D2H         LINE#         884
  C:14D5H         LINE#         885
  C:14E4H         LINE#         887
  C:14FDH         LINE#         888
  C:1506H         LINE#         889
  C:1524H         LINE#         890
  C:1524H         LINE#         891
  C:1524H         LINE#         892
  C:1533H         LINE#         893
  C:1539H         LINE#         894
  C:153FH         LINE#         895
  C:1542H         LINE#         897
  C:1542H         LINE#         898
  C:1551H         LINE#         899
  C:1555H         LINE#         900
  C:1555H         LINE#         901
  C:1558H         LINE#         903
  C:1558H         LINE#         904
  C:1558H         LINE#         905
  C:1566H         LINE#         906
  C:1566H         LINE#         907
  C:1566H         LINE#         908
  C:1569H         LINE#         910
BL51 BANKED LINKER/LOCATER V6.22                                                      04/22/2016  18:21:44  PAGE 54


  C:1569H         LINE#         911
  C:1569H         LINE#         912
  C:1572H         LINE#         913
  C:1578H         LINE#         914
  C:1578H         LINE#         915
  C:157AH         LINE#         917
  C:157AH         LINE#         918
  C:1583H         LINE#         919
  C:1590H         LINE#         920
  C:1590H         LINE#         921
  C:15AEH         LINE#         922
  C:15BCH         LINE#         923
  C:15BEH         LINE#         925
  C:15BEH         LINE#         926
  C:15CBH         LINE#         927
  C:15D8H         LINE#         928
  C:15D8H         LINE#         929
  C:15D8H         LINE#         930
  C:15D8H         LINE#         931
  C:15DEH         LINE#         932
  C:15DEH         LINE#         934
  C:15E4H         LINE#         935
  C:15E4H         LINE#         936
  C:15F6H         LINE#         937
  C:15F6H         LINE#         938
  C:15F6H         LINE#         939
  C:15FDH         LINE#         940
  C:15FFH         LINE#         941
  C:15FFH         LINE#         942
  C:1606H         LINE#         943
  C:1608H         LINE#         944
  C:1608H         LINE#         945
  C:160FH         LINE#         946
  C:1611H         LINE#         947
  C:1611H         LINE#         948
  C:1618H         LINE#         949
  C:1618H         LINE#         950
  C:1618H         LINE#         951
  C:1618H         LINE#         953
  C:161DH         LINE#         954
  C:1628H         LINE#         956
  C:162FH         LINE#         957
  C:162FH         LINE#         958
  C:1632H         LINE#         959
  C:1638H         LINE#         960
  C:163AH         LINE#         961
  C:163DH         LINE#         963
  C:163DH         LINE#         964
  C:163DH         LINE#         965
  C:163DH         LINE#         966
  C:163DH         LINE#         967
  C:1645H         LINE#         968
  C:1651H         LINE#         969
  C:1651H         LINE#         970
  C:1651H         LINE#         972
  C:165AH         LINE#         973
  C:165AH         LINE#         974
BL51 BANKED LINKER/LOCATER V6.22                                                      04/22/2016  18:21:44  PAGE 55


  C:1661H         LINE#         975
  C:1663H         LINE#         976
  C:1666H         LINE#         977
  C:1671H         LINE#         978
  C:1674H         LINE#         980
  C:1674H         LINE#         981
  C:1683H         LINE#         982
  C:1683H         LINE#         988
  C:168FH         LINE#         989
  C:168FH         LINE#         990
  C:1696H         LINE#         991
  C:169FH         LINE#         992
  C:16A2H         LINE#         994
  C:16A2H         LINE#         995
  C:16A7H         LINE#         996
  C:16AFH         LINE#         997
  C:16B8H         LINE#         999
  C:16BBH         LINE#         1001
  C:16C6H         LINE#         1002
  C:16C6H         LINE#         1003
  C:16F2H         LINE#         1004
  C:16F2H         LINE#         1005
  C:1702H         LINE#         1006
  C:1702H         LINE#         1007
  C:1705H         LINE#         1008
  C:170AH         LINE#         1009
  C:170AH         LINE#         1010
  C:170FH         LINE#         1011
  C:170FH         LINE#         1012
  C:1712H         LINE#         1013
  C:1715H         LINE#         1014
  C:1715H         LINE#         1016
  C:1715H         LINE#         1017
  C:171DH         LINE#         1018
  C:171DH         LINE#         1019
  C:1720H         LINE#         1020
  C:1720H         LINE#         1022
  C:1728H         LINE#         1023
  C:1728H         LINE#         1024
  C:172BH         LINE#         1025
  C:172FH         LINE#         1026
  C:172FH         LINE#         1028
  C:172FH         LINE#         1029
  C:1737H         LINE#         1030
  C:1737H         LINE#         1032
  C:173AH         LINE#         1033
  C:175BH         LINE#         1034
  C:1761H         LINE#         1035
  C:1761H         LINE#         1036
  C:1774H         LINE#         1037
  C:1777H         LINE#         1038
  C:1779H         LINE#         1040
  C:1779H         LINE#         1041
  C:178FH         LINE#         1042
  C:179DH         LINE#         1043
  C:179DH         LINE#         1044
  C:17A4H         LINE#         1045
BL51 BANKED LINKER/LOCATER V6.22                                                      04/22/2016  18:21:44  PAGE 56


  C:17A4H         LINE#         1046
  C:17A4H         LINE#         1047
  C:17AAH         LINE#         1048
  C:17B5H         LINE#         1050
  C:17BCH         LINE#         1051
  C:17BCH         LINE#         1052
  C:17BFH         LINE#         1053
  C:17C5H         LINE#         1054
  C:17C7H         LINE#         1055
  C:17CAH         LINE#         1057
  C:17D0H         LINE#         1058
  C:17D0H         LINE#         1059
  C:17D0H         LINE#         1060
  C:17D0H         LINE#         1061
  C:17D0H         LINE#         1062
  C:17D0H         LINE#         1063
  C:17D8H         LINE#         1064
  C:17E4H         LINE#         1065
  C:17E4H         LINE#         1066
  C:17E4H         LINE#         1068
  C:17EDH         LINE#         1069
  C:17EDH         LINE#         1070
  C:17F4H         LINE#         1071
  C:17F6H         LINE#         1072
  C:17F9H         LINE#         1073
  C:1808H         LINE#         1074
  C:180BH         LINE#         1076
  C:180BH         LINE#         1077
  C:1815H         LINE#         1078
  C:1818H         LINE#         1079
  C:1818H         LINE#         1080
  C:181FH         LINE#         1081
  C:1821H         LINE#         1083
  C:1821H         LINE#         1084
  C:1827H         LINE#         1085
  C:182BH         LINE#         1086
  C:182DH         LINE#         1087
  C:1830H         LINE#         1088
  C:1838H         LINE#         1089
  C:1840H         LINE#         1090
  C:1848H         LINE#         1091
  C:184CH         LINE#         1092
  C:184EH         LINE#         1094
  C:184EH         LINE#         1095
  C:185FH         LINE#         1096
  C:1861H         LINE#         1098
  C:1861H         LINE#         1099
  C:1861H         LINE#         1100
  C:1861H         LINE#         1101
  C:1861H         LINE#         1102
  C:1863H         LINE#         1104
  C:1863H         LINE#         1105
  C:1866H         LINE#         1106
  C:1869H         LINE#         1107
  C:1869H         LINE#         1109
  C:1872H         LINE#         1111
  C:187AH         LINE#         1112
BL51 BANKED LINKER/LOCATER V6.22                                                      04/22/2016  18:21:44  PAGE 57


  C:1882H         LINE#         1113
  C:1893H         LINE#         1115
  C:189AH         LINE#         1116
  C:189AH         LINE#         1117
  C:18A7H         LINE#         1118
  C:18AEH         LINE#         1119
  C:18AEH         LINE#         1120
  C:18AEH         LINE#         1122
  C:18B1H         LINE#         1123
  -------         ENDPROC       PROCCMD
  -------         ENDMOD        COMM

  -------         MODULE        DEBUG
  C:0000H         SYMBOL        _ICE_DUMMY_
  D:0090H         PUBLIC        P1
  D:00B0H         PUBLIC        P3
  D:00A5H         PUBLIC        P4
  D:00A8H         PUBLIC        IE
  X:7B73H         SYMBOL        g_RxFlag
  D:00C7H         PUBLIC        TA
  D:00B8H         PUBLIC        IP
  X:7B74H         SYMBOL        DebugMeFlag
  B:0023H.7       SYMBOL        JumpFlag
  B:0098H.0       PUBLIC        RI
  X:7B75H         SYMBOL        EnterMM
  B:0098H.1       PUBLIC        TI
  X:7B76H         SYMBOL        g_RxBuf
  D:0088H         PUBLIC        TCON
  X:7B96H         SYMBOL        g_ulDispAddr
  X:7B9AH         SYMBOL        g_RxNum
  X:7B9BH         SYMBOL        g_TxNum
  B:0090H.0       PUBLIC        IO0
  C:70E3H         SYMBOL        TxData
  B:0090H.1       PUBLIC        IO1
  B:0090H.2       PUBLIC        IO2
  B:0090H.3       PUBLIC        IO3
  B:0090H.4       PUBLIC        IO4
  B:0090H.5       PUBLIC        IO5
  B:0090H.6       PUBLIC        IO6
  B:0090H.7       PUBLIC        IO7
  C:64C7H         PUBLIC        Scc2Intep
  D:00E8H         PUBLIC        EIE
  D:00F8H         PUBLIC        EIP
  D:0099H         PUBLIC        SBUF0
  C:6E63H         PUBLIC        Scc2Init
  D:0098H         PUBLIC        SCON0
  D:00C0H         PUBLIC        SCON1
  D:00C8H         PUBLIC        T2CON
  C:18DAH         PUBLIC        Debug
  D:00D0H         PUBLIC        PSW
  D:00D8H         PUBLIC        WDCON
  B:00D8H.0       PUBLIC        RWT
  C:614FH         SYMBOL        Com007C
  C:614FH         SYMBOL        L?0125
  C:6152H         SYMBOL        L?0126
  C:6156H         SYMBOL        L?0127
  C:615CH         SYMBOL        L?0128
BL51 BANKED LINKER/LOCATER V6.22                                                      04/22/2016  18:21:44  PAGE 58


  C:615FH         SYMBOL        L?0129
  C:6167H         SYMBOL        L?0135
  C:6168H         SYMBOL        L?0136
  C:6170H         SYMBOL        L?0137
  C:6171H         SYMBOL        L?0138
  C:6178H         SYMBOL        L?0144
  C:6182H         SYMBOL        L?0145
  C:6189H         SYMBOL        L?0146
  C:6192H         SYMBOL        L?0149
  C:6193H         SYMBOL        L?0150
  C:619AH         SYMBOL        L?0151
  C:619AH         SYMBOL        L?0152
  C:61A2H         SYMBOL        L?0153
  C:61A2H         SYMBOL        L?0154
  C:61B2H         SYMBOL        L?0159
  C:61BAH         SYMBOL        L?0160
  C:61C1H         SYMBOL        L?0161
  C:61C6H         SYMBOL        L?0162
  C:61C7H         SYMBOL        L?0163
  C:61CFH         SYMBOL        L?0166
  C:61D5H         SYMBOL        L?0167
  C:61DCH         SYMBOL        L?0168
  C:61EDH         SYMBOL        L?0169
  C:61F1H         SYMBOL        L?0170
  C:61F9H         SYMBOL        L?0173
  C:6207H         SYMBOL        L?0174
  C:6208H         SYMBOL        L?0175
  C:620EH         SYMBOL        L?0179
  C:620FH         SYMBOL        L?0180
  C:6217H         SYMBOL        L?0181
  C:6224H         SYMBOL        L?0183
  C:6230H         SYMBOL        L?0184
  C:6239H         SYMBOL        L?0185
  C:6239H         SYMBOL        L?0186
  C:6240H         SYMBOL        L?0187
  C:6240H         SYMBOL        L?0188
  -------         PROC          COM007C
  -------         ENDPROC       COM007C
  -------         PROC          TXDATA
  C:70E3H         LINE#         162
  C:70E3H         LINE#         163
  C:70E3H         LINE#         164
  C:70E9H         LINE#         166
  C:70F0H         LINE#         167
  C:70F2H         LINE#         175
  -------         ENDPROC       TXDATA
  -------         PROC          SCC2INIT
  C:6E63H         LINE#         32
  C:6E63H         LINE#         33
  C:6E63H         LINE#         147
  C:6E68H         LINE#         148
  C:6E6EH         LINE#         149
  C:6E73H         LINE#         150
  C:6E77H         LINE#         151
  C:6E79H         LINE#         152
  C:6E7BH         LINE#         153
  C:6E7DH         LINE#         155
BL51 BANKED LINKER/LOCATER V6.22                                                      04/22/2016  18:21:44  PAGE 59


  C:6E83H         LINE#         158
  C:6E91H         LINE#         159
  C:6E91H         LINE#         160
  C:6E98H         LINE#         162
  C:6E9DH         LINE#         163
  C:6EA3H         LINE#         164
  C:6EA3H         LINE#         165
  C:6EA6H         LINE#         166
  C:6EA6H         LINE#         173
  -------         ENDPROC       SCC2INIT
  -------         PROC          SCC2INTEP
  -------         DO            
  D:0017H         SYMBOL        cTemp
  D:001FH         SYMBOL        outEn
  -------         ENDDO         
  C:64C7H         LINE#         190
  C:64DDH         LINE#         196
  C:64E0H         LINE#         197
  C:64E0H         LINE#         198
  C:64E2H         LINE#         200
  C:64E8H         LINE#         201
  C:64E8H         LINE#         202
  C:64EDH         LINE#         203
  C:64FDH         LINE#         205
  C:6500H         LINE#         206
  C:6500H         LINE#         207
  C:6506H         LINE#         208
  C:650BH         LINE#         209
  C:650DH         LINE#         210
  C:6514H         LINE#         211
  C:651CH         LINE#         212
  C:652AH         LINE#         213
  C:652CH         LINE#         215
  C:6547H         LINE#         216
  C:6547H         LINE#         217
  C:6549H         LINE#         218
  C:654CH         LINE#         219
  C:654CH         LINE#         220
  C:654CH         LINE#         221
  C:654EH         LINE#         223
  C:654EH         LINE#         224
  C:6550H         LINE#         225
  C:6554H         LINE#         226
  C:6554H         LINE#         227
  C:6567H         LINE#         228
  C:6567H         LINE#         229
  C:6576H         LINE#         230
  C:6576H         LINE#         231
  C:6578H         LINE#         232
  C:657BH         LINE#         233
  C:657BH         LINE#         234
  -------         ENDPROC       SCC2INTEP
  C:2072H         SYMBOL        L?0122
  C:2098H         SYMBOL        L?0123
  C:20E2H         SYMBOL        L?0130
  C:20ECH         SYMBOL        L?0131
  C:20F6H         SYMBOL        L?0132
BL51 BANKED LINKER/LOCATER V6.22                                                      04/22/2016  18:21:44  PAGE 60


  C:210AH         SYMBOL        L?0133
  C:2114H         SYMBOL        L?0134
  C:211EH         SYMBOL        L?0139
  C:2128H         SYMBOL        L?0140
  C:213CH         SYMBOL        L?0141
  C:2146H         SYMBOL        L?0142
  C:2150H         SYMBOL        L?0143
  C:2164H         SYMBOL        L?0147
  C:216EH         SYMBOL        L?0148
  C:2178H         SYMBOL        L?0155
  C:2186H         SYMBOL        L?0156
  C:219AH         SYMBOL        L?0157
  C:21A6H         SYMBOL        L?0158
  C:21B0H         SYMBOL        L?0164
  C:21B9H         SYMBOL        L?0165
  C:21C3H         SYMBOL        L?0171
  C:21CFH         SYMBOL        L?0172
  C:21DFH         SYMBOL        L?0176
  C:21E8H         SYMBOL        L?0177
  C:21F1H         SYMBOL        L?0178
  C:21FAH         SYMBOL        L?0182
  -------         PROC          DEBUG
  -------         DO            
  X:7B35H         SYMBOL        usTemp
  -------         DO            
  X:7B37H         SYMBOL        i
  X:7B39H         SYMBOL        start
  X:7B3BH         SYMBOL        end
  X:7B3DH         SYMBOL        mem
  -------         ENDDO         
  -------         DO            
  X:7B37H         SYMBOL        ucIC
  -------         ENDDO         
  -------         ENDDO         
  C:18DAH         LINE#         317
  C:18DAH         LINE#         318
  C:18DAH         LINE#         319
  C:18DAH         LINE#         321
  C:18E2H         LINE#         323
  C:18EBH         LINE#         324
  C:18EBH         LINE#         326
  C:18EBH         LINE#         328
  C:18F0H         LINE#         330
  C:18FDH         LINE#         331
  C:18FDH         LINE#         332
  C:190EH         LINE#         333
  C:190EH         LINE#         334
  C:1917H         LINE#         335
  C:1917H         LINE#         337
  C:1920H         LINE#         342
  C:1920H         LINE#         343
  C:1920H         LINE#         344
  C:1923H         LINE#         346
  C:1923H         LINE#         347
  C:1945H         LINE#         348
  C:194FH         LINE#         349
  C:194FH         LINE#         350
BL51 BANKED LINKER/LOCATER V6.22                                                      04/22/2016  18:21:44  PAGE 61


  C:1950H         LINE#         351
  C:1950H         LINE#         352
  C:1950H         LINE#         353
  C:1953H         LINE#         355
  C:1953H         LINE#         356
  C:1958H         LINE#         358
  C:1958H         LINE#         359
  C:195BH         LINE#         361
  C:1961H         LINE#         366
  C:1961H         LINE#         367
  C:1961H         LINE#         368
  C:1964H         LINE#         370
  C:1964H         LINE#         371
  C:196DH         LINE#         373
  C:1970H         LINE#         374
  C:1970H         LINE#         375
  C:1972H         LINE#         377
  C:197EH         LINE#         378
  C:197EH         LINE#         379
  C:1983H         LINE#         380
  C:198DH         LINE#         381
  C:1990H         LINE#         382
  C:1993H         LINE#         384
  C:1993H         LINE#         387
  C:19A1H         LINE#         392
  C:19A1H         LINE#         394
  C:19A4H         LINE#         397
  C:19A4H         LINE#         399
  C:19ADH         LINE#         400
  C:19ADH         LINE#         402
  C:19B2H         LINE#         403
  C:19B2H         LINE#         404
  C:19B7H         LINE#         406
  C:19BDH         LINE#         411
  C:19C0H         LINE#         413
  C:19C0H         LINE#         415
  C:19C9H         LINE#         416
  C:19C9H         LINE#         418
  C:19E3H         LINE#         419
  C:19EAH         LINE#         420
  C:1A06H         LINE#         423
  C:1A1DH         LINE#         429
  C:1A1DH         LINE#         432
  C:1A2EH         LINE#         435
  C:1A2EH         LINE#         436
  C:1A2EH         LINE#         438
  C:1A3AH         LINE#         447
  C:1A3DH         LINE#         449
  C:1A3DH         LINE#         451
  C:1A44H         LINE#         452
  C:1A44H         LINE#         454
  C:1A4DH         LINE#         459
  C:1A50H         LINE#         461
  C:1A50H         LINE#         463
  C:1A60H         LINE#         464
  C:1A60H         LINE#         471
  C:1A79H         LINE#         472
BL51 BANKED LINKER/LOCATER V6.22                                                      04/22/2016  18:21:44  PAGE 62


  C:1A79H         LINE#         473
  C:1A84H         LINE#         474
  C:1A87H         LINE#         476
  C:1A87H         LINE#         478
  C:1A9EH         LINE#         479
  C:1AA5H         LINE#         480
  C:1AD2H         LINE#         482
  C:1AD2H         LINE#         483
  C:1AD2H         LINE#         484
  C:1AD2H         LINE#         485
  C:1AD5H         LINE#         488
  C:1ADCH         LINE#         489
  C:1AE3H         LINE#         491
  C:1AF1H         LINE#         494
  C:1B00H         LINE#         496
  C:1B19H         LINE#         498
  C:1B2CH         LINE#         499
  C:1B2EH         LINE#         500
  C:1B2EH         LINE#         501
  C:1B4DH         LINE#         502
  C:1B64H         LINE#         503
  C:1B92H         LINE#         504
  C:1B92H         LINE#         506
  C:1BADH         LINE#         507
  C:1BADH         LINE#         508
  C:1BB9H         LINE#         510
  C:1BD5H         LINE#         512
  C:1BE2H         LINE#         513
  C:1BE2H         LINE#         514
  C:1BE8H         LINE#         515
  C:1BEBH         LINE#         516
  C:1BF4H         LINE#         517
  C:1BF4H         LINE#         518
  C:1BFAH         LINE#         519
  C:1BFAH         LINE#         520
  C:1C09H         LINE#         521
  C:1C13H         LINE#         522
  C:1C13H         LINE#         523
  C:1C2BH         LINE#         524
  C:1C2BH         LINE#         525
  C:1C2BH         LINE#         526
  C:1C38H         LINE#         527
  C:1C49H         LINE#         528
  C:1C52H         LINE#         529
  C:1C52H         LINE#         597
  C:1C55H         LINE#         599
  C:1C55H         LINE#         601
  C:1C65H         LINE#         602
  C:1C65H         LINE#         604
  C:1C83H         LINE#         606
  C:1C83H         LINE#         607
  C:1C92H         LINE#         608
  C:1C95H         LINE#         610
  C:1C95H         LINE#         611
  C:1CB2H         LINE#         612
  C:1CBEH         LINE#         613
  C:1D0EH         LINE#         615
BL51 BANKED LINKER/LOCATER V6.22                                                      04/22/2016  18:21:44  PAGE 63


  C:1D0EH         LINE#         616
  C:1D0EH         LINE#         617
  C:1D0EH         LINE#         618
  C:1D11H         LINE#         621
  C:1D11H         LINE#         622
  C:1D11H         LINE#         624
  C:1D20H         LINE#         627
  C:1D26H         LINE#         628
  C:1D26H         LINE#         661
  C:1D29H         LINE#         663
  C:1D29H         LINE#         665
  C:1D39H         LINE#         666
  C:1D39H         LINE#         667
  C:1D59H         LINE#         668
  C:1D7CH         LINE#         669
  C:1D9FH         LINE#         674
  C:1DCAH         LINE#         677
  C:1DD0H         LINE#         683
  C:1DD3H         LINE#         685
  C:1DD3H         LINE#         687
  C:1DE3H         LINE#         688
  C:1DE3H         LINE#         689
  C:1DFAH         LINE#         690
  C:1DFAH         LINE#         693
  C:1E0AH         LINE#         699
  C:1E0DH         LINE#         701
  C:1E0DH         LINE#         702
  C:1E14H         LINE#         705
  C:1E19H         LINE#         707
  C:1E55H         LINE#         708
  C:1E55H         LINE#         709
  C:1E55H         LINE#         711
  C:1E5CH         LINE#         718
  C:1E5FH         LINE#         719
  C:1E5FH         LINE#         721
  C:1E66H         LINE#         728
  C:1E69H         LINE#         729
  C:1E69H         LINE#         731
  C:1E70H         LINE#         738
  C:1E73H         LINE#         739
  C:1E73H         LINE#         741
  C:1E7AH         LINE#         748
  C:1E7DH         LINE#         749
  C:1E7DH         LINE#         751
  C:1E84H         LINE#         758
  C:1E87H         LINE#         759
  C:1E87H         LINE#         761
  C:1E8EH         LINE#         768
  C:1E91H         LINE#         769
  C:1E91H         LINE#         771
  C:1E98H         LINE#         778
  C:1E9BH         LINE#         779
  C:1E9BH         LINE#         781
  C:1EA2H         LINE#         788
  C:1EA5H         LINE#         789
  C:1EA5H         LINE#         791
  C:1EACH         LINE#         792
BL51 BANKED LINKER/LOCATER V6.22                                                      04/22/2016  18:21:44  PAGE 64


  C:1EACH         LINE#         799
  C:1EAEH         LINE#         802
  C:1EAEH         LINE#         803
  C:1EB5H         LINE#         804
  C:1EB5H         LINE#         805
  C:1EB7H         LINE#         806
  C:1EB7H         LINE#         807
  C:1EBEH         LINE#         808
  C:1EBEH         LINE#         809
  C:1EC0H         LINE#         810
  C:1EC0H         LINE#         811
  C:1EC7H         LINE#         812
  C:1EC7H         LINE#         813
  C:1EC9H         LINE#         814
  C:1EC9H         LINE#         815
  C:1ED0H         LINE#         816
  C:1ED0H         LINE#         817
  C:1ED2H         LINE#         818
  C:1ED2H         LINE#         819
  C:1ED9H         LINE#         820
  C:1EDFH         LINE#         821
  C:1EE1H         LINE#         824
  C:1EE1H         LINE#         827
  C:1EF4H         LINE#         833
  C:1EF4H         LINE#         835
  C:1EF9H         LINE#         837
  C:1EF9H         LINE#         840
  C:1F02H         LINE#         845
  C:1F05H         LINE#         847
  C:1F05H         LINE#         849
  C:1F12H         LINE#         850
  C:1F12H         LINE#         852
  C:1F18H         LINE#         853
  C:1F1FH         LINE#         854
  C:1F26H         LINE#         855
  C:1F33H         LINE#         865
  C:1F56H         LINE#         870
  C:1F59H         LINE#         872
  C:1F59H         LINE#         874
  C:1F66H         LINE#         875
  C:1F66H         LINE#         876
  C:1F6AH         LINE#         877
  C:1F6CH         LINE#         879
  C:1F72H         LINE#         881
  C:1F72H         LINE#         883
  C:1F8CH         LINE#         884
  C:1F8CH         LINE#         885
  C:1F8FH         LINE#         887
  C:1F8FH         LINE#         889
  C:1FA9H         LINE#         890
  C:1FA9H         LINE#         891
  C:1FB1H         LINE#         892
  C:1FB1H         LINE#         894
  C:1FBAH         LINE#         899
  C:1FBCH         LINE#         901
  C:1FC4H         LINE#         902
  C:1FC4H         LINE#         903
BL51 BANKED LINKER/LOCATER V6.22                                                      04/22/2016  18:21:44  PAGE 65


  C:1FD5H         LINE#         910
  C:1FD7H         LINE#         911
  C:1FD9H         LINE#         913
  C:1FE9H         LINE#         916
  C:1FECH         LINE#         918
  C:1FECH         LINE#         1059
  C:1FF9H         LINE#         1060
  C:1FF9H         LINE#         1061
  C:2003H         LINE#         1062
  C:2003H         LINE#         1063
  C:2003H         LINE#         1064
  C:2005H         LINE#         1066
  C:2005H         LINE#         1069
  C:2012H         LINE#         1070
  C:2019H         LINE#         1071
  C:2019H         LINE#         1072
  C:2022H         LINE#         1073
  C:2024H         LINE#         1075
  C:2024H         LINE#         1080
  C:2051H         LINE#         1082
  C:2051H         LINE#         1083
  C:2051H         LINE#         1085
  C:205DH         LINE#         1090
  C:205FH         LINE#         1092
  C:205FH         LINE#         1095
  C:206EH         LINE#         1100
  C:2071H         LINE#         1102
  -------         ENDPROC       DEBUG
  -------         ENDMOD        DEBUG

  -------         MODULE        HDLC
  C:0000H         SYMBOL        _ICE_DUMMY_
  D:0090H         PUBLIC        P1
  D:00B0H         PUBLIC        P3
  D:00A8H         PUBLIC        IE
  C:56CBH         SYMBOL        HdlcOK
  C:5E41H         PUBLIC        Scc1Tx
  D:00B8H         PUBLIC        IP
  X:7BADH         PUBLIC        g_usRxDataLen
  X:7BAFH         PUBLIC        g_usTxPosi
  X:7BB1H         PUBLIC        g_stuHinfo
  C:6F8FH         PUBLIC        HdlcErr
  X:7BB6H         PUBLIC        g_Scc1ActFlag
  D:0088H         PUBLIC        TCON
  X:0000H         PUBLIC        g_ucHdlcBuf
  B:00A8H.0       PUBLIC        EX0
  B:0088H.0       PUBLIC        IT0
  B:00A8H.2       PUBLIC        EX1
  B:0088H.2       PUBLIC        IT1
  D:00E8H         PUBLIC        EIE
  X:7BB7H         PUBLIC        g_CommState
  D:00F8H         PUBLIC        EIP
  C:6D06H         PUBLIC        Scc1Init
  C:70F3H         PUBLIC        Scc1HardInit
  D:0098H         PUBLIC        SCON0
  D:00C0H         PUBLIC        SCON1
  D:00C8H         PUBLIC        T2CON
BL51 BANKED LINKER/LOCATER V6.22                                                      04/22/2016  18:21:44  PAGE 66


  X:7BB8H         PUBLIC        g_usScc1RxLen
  X:7BBAH         PUBLIC        g_usScc1TxLen
  D:00D0H         PUBLIC        PSW
  D:00D8H         PUBLIC        WDCON
  C:6865H         SYMBOL        Com003E
  C:6865H         SYMBOL        L?0063
  C:6880H         SYMBOL        L?0064
  C:6889H         SYMBOL        L?0065
  C:6889H         SYMBOL        L?0066
  C:688DH         SYMBOL        L?0067
  C:6898H         SYMBOL        L?0068
  C:68BAH         SYMBOL        L?0069
  C:68BAH         SYMBOL        L?0070
  C:68C1H         SYMBOL        L?0071
  C:68D6H         SYMBOL        L?0072
  C:68E8H         SYMBOL        L?0073
  C:68F7H         SYMBOL        L?0074
  C:6905H         SYMBOL        L?0075
  C:6905H         SYMBOL        L?0076
  -------         PROC          COM003E
  -------         ENDPROC       COM003E
  -------         PROC          HDLCOK
  C:56CBH         LINE#         31
  C:56F1H         LINE#         33
  C:56F6H         LINE#         34
  C:56FBH         LINE#         39
  C:5702H         LINE#         41
  C:5702H         LINE#         42
  C:5708H         LINE#         43
  C:5708H         LINE#         45
  C:570BH         LINE#         47
  C:570BH         LINE#         49
  C:5712H         LINE#         50
  C:5712H         LINE#         51
  C:5716H         LINE#         52
  C:5723H         LINE#         53
  C:5731H         LINE#         55
  C:5734H         LINE#         57
  C:5734H         LINE#         58
  C:5737H         LINE#         60
  C:5737H         LINE#         61
  C:574EH         LINE#         62
  C:574EH         LINE#         63
  C:574EH         LINE#         64
  C:5755H         LINE#         65
  C:5755H         LINE#         66
  C:5758H         LINE#         67
  C:575FH         LINE#         68
  C:575FH         LINE#         69
  C:5762H         LINE#         71
  C:5762H         LINE#         72
  C:5781H         LINE#         73
  C:5781H         LINE#         74
  C:5784H         LINE#         75
  C:5784H         LINE#         113
  C:578BH         LINE#         114
  C:578BH         LINE#         115
BL51 BANKED LINKER/LOCATER V6.22                                                      04/22/2016  18:21:44  PAGE 67


  C:57A6H         LINE#         116
  C:57B6H         LINE#         117
  C:57B6H         LINE#         118
  C:57B9H         LINE#         119
  C:57BCH         LINE#         120
  C:57BCH         LINE#         121
  C:57BFH         LINE#         123
  C:57BFH         LINE#         124
  C:57C2H         LINE#         125
  C:57C5H         LINE#         126
  C:57C5H         LINE#         127
  C:57C5H         LINE#         128
  C:57C5H         LINE#         129
  C:57C5H         LINE#         130
  C:57C8H         LINE#         132
  C:57C8H         LINE#         133
  C:57C8H         LINE#         134
  C:57D3H         LINE#         135
  C:57DBH         LINE#         136
  C:57DBH         LINE#         137
  C:57DEH         LINE#         138
  C:57E1H         LINE#         139
  C:57E1H         LINE#         140
  C:57E4H         LINE#         142
  C:57E4H         LINE#         143
  C:57EFH         LINE#         144
  C:57F5H         LINE#         145
  C:57F5H         LINE#         146
  C:57F5H         LINE#         147
  C:57F5H         LINE#         148
  C:57F5H         LINE#         149
  C:57F5H         LINE#         150
  C:57F5H         LINE#         151
  C:57F5H         LINE#         153
  C:57F5H         LINE#         154
  C:57F8H         LINE#         157
  C:57F8H         LINE#         158
  C:57FFH         LINE#         159
  C:57FFH         LINE#         160
  C:5802H         LINE#         161
  C:5809H         LINE#         162
  C:5809H         LINE#         163
  C:580CH         LINE#         165
  C:580CH         LINE#         166
  C:580CH         LINE#         167
  C:5825H         LINE#         168
  C:5825H         LINE#         169
  C:5828H         LINE#         170
  C:582EH         LINE#         171
  C:582EH         LINE#         172
  C:5831H         LINE#         174
  C:5831H         LINE#         175
  C:5841H         LINE#         176
  C:5850H         LINE#         208
  C:5857H         LINE#         209
  C:5857H         LINE#         210
  C:585AH         LINE#         211
BL51 BANKED LINKER/LOCATER V6.22                                                      04/22/2016  18:21:44  PAGE 68


  C:5875H         LINE#         212
  C:5875H         LINE#         213
  C:5878H         LINE#         214
  C:587EH         LINE#         215
  C:587EH         LINE#         216
  C:5880H         LINE#         218
  C:5880H         LINE#         219
  C:5883H         LINE#         220
  C:588AH         LINE#         221
  C:588AH         LINE#         222
  C:588AH         LINE#         223
  C:588CH         LINE#         225
  C:588CH         LINE#         226
  C:588EH         LINE#         227
  C:588EH         LINE#         228
  C:588EH         LINE#         229
  C:5891H         LINE#         230
  C:5891H         LINE#         231
  C:5891H         LINE#         233
  C:5891H         LINE#         234
  C:5891H         LINE#         235
  C:5893H         LINE#         238
  C:5893H         LINE#         242
  C:589AH         LINE#         244
  C:589AH         LINE#         245
  C:589DH         LINE#         246
  C:58A4H         LINE#         247
  C:58AAH         LINE#         248
  C:58ACH         LINE#         249
  C:58AFH         LINE#         250
  C:58B1H         LINE#         292
  C:58B1H         LINE#         293
  C:58B6H         LINE#         294
  C:58BBH         LINE#         295
  C:58BBH         LINE#         296
  C:58BBH         LINE#         297
  -------         ENDPROC       HDLCOK
  -------         PROC          HDLCERR
  C:6F8FH         LINE#         590
  C:6F9EH         LINE#         592
  C:6FA3H         LINE#         593
  C:6FA5H         LINE#         594
  C:6FA5H         LINE#         595
  C:6FA5H         LINE#         596
  C:6FA8H         LINE#         597
  C:6FADH         LINE#         598
  C:6FB4H         LINE#         599
  C:6FB7H         LINE#         600
  -------         ENDPROC       HDLCERR
  -------         PROC          SCC1HARDINIT
  C:70F3H         LINE#         617
  C:70F3H         LINE#         618
  C:70F3H         LINE#         620
  C:70F8H         LINE#         621
  C:70FAH         LINE#         622
  C:70FCH         LINE#         624
  C:70FEH         LINE#         625
BL51 BANKED LINKER/LOCATER V6.22                                                      04/22/2016  18:21:44  PAGE 69


  C:7100H         LINE#         626
  C:7102H         LINE#         739
  -------         ENDPROC       SCC1HARDINIT
  -------         PROC          SCC1INIT
  C:6D06H         LINE#         755
  C:6D06H         LINE#         756
  C:6D06H         LINE#         759
  C:6D0DH         LINE#         760
  C:6D11H         LINE#         761
  C:6D17H         LINE#         762
  C:6D1BH         LINE#         763
  C:6D21H         LINE#         765
  C:6D25H         LINE#         768
  C:6D29H         LINE#         769
  C:6D2DH         LINE#         770
  C:6D31H         LINE#         771
  C:6D35H         LINE#         772
  C:6D37H         LINE#         774
  C:6D44H         LINE#         775
  C:6D53H         LINE#         776
  -------         ENDPROC       SCC1INIT
  -------         PROC          SCC1TX
  -------         DO            
  X:7B15H         SYMBOL        uTemp
  D:0018H         SYMBOL        usTemp
  -------         ENDDO         
  C:5E41H         LINE#         793
  C:5E41H         LINE#         794
  C:5E41H         LINE#         804
  C:5E4CH         LINE#         805
  C:5E4CH         LINE#         806
  C:5E50H         LINE#         808
  C:5E55H         LINE#         810
  C:5E56H         LINE#         811
  C:5E5FH         LINE#         812
  C:5E5FH         LINE#         813
  C:5E65H         LINE#         816
  C:5E6BH         LINE#         820
  C:5E6FH         LINE#         823
  C:5E79H         LINE#         824
  C:5E7CH         LINE#         825
  C:5E7FH         LINE#         827
  C:5E85H         LINE#         828
  C:5E8CH         LINE#         829
  C:5EADH         LINE#         831
  C:5EBBH         LINE#         832
  C:5EC9H         LINE#         833
  C:5ECFH         LINE#         854
  C:5ED0H         LINE#         856
  C:5ED0H         LINE#         860
  C:5ED5H         LINE#         864
  C:5EE5H         LINE#         865
  C:5EF3H         LINE#         870
  C:5F09H         LINE#         873
  C:5F18H         LINE#         874
  C:5F18H         LINE#         875
  C:5F1BH         LINE#         877
BL51 BANKED LINKER/LOCATER V6.22                                                      04/22/2016  18:21:44  PAGE 70


  C:5F37H         LINE#         878
  C:5F4BH         LINE#         879
  C:5F51H         LINE#         896
  C:5F58H         LINE#         897
  C:5F58H         LINE#         898
  -------         ENDPROC       SCC1TX
  -------         ENDMOD        HDLC

  -------         MODULE        ?C_STARTUP
  C:664AH         SEGMENT       ?C_C51STARTUP
  I:0024H         SEGMENT       ?STACK
  C:0000H         PUBLIC        ?C_STARTUP
  B:00D0H.6       SYMBOL        AC
  D:00E0H         SYMBOL        ACC
  D:00F0H         SYMBOL        B
  D:008EH         SYMBOL        CKCON
  B:00C8H.0       SYMBOL        CP_RL2
  B:00D0H.7       SYMBOL        CY
  B:00C8H.1       SYMBOL        C_T2
  D:0083H         SYMBOL        DPH
  D:0085H         SYMBOL        DPH1
  D:0082H         SYMBOL        DPL
  D:0084H         SYMBOL        DPL1
  D:0086H         SYMBOL        DPS
  B:00A8H.7       SYMBOL        EA
  D:00E8H         SYMBOL        EIE
  D:00F8H         SYMBOL        EIP
  B:00D8H.5       SYMBOL        EPFI
  B:00A8H.4       SYMBOL        ES0
  B:00A8H.6       SYMBOL        ES1
  B:00A8H.1       SYMBOL        ET0
  B:00A8H.3       SYMBOL        ET1
  B:00A8H.5       SYMBOL        ET2
  B:00E8H.4       SYMBOL        EWDI
  B:00D8H.1       SYMBOL        EWT
  B:00A8H.0       SYMBOL        EX0
  B:00A8H.2       SYMBOL        EX1
  B:00E8H.0       SYMBOL        EX2
  B:00E8H.1       SYMBOL        EX3
  B:00E8H.2       SYMBOL        EX4
  B:00E8H.3       SYMBOL        EX5
  B:00C8H.3       SYMBOL        EXEN2
  B:00C8H.6       SYMBOL        EXF2
  D:0091H         SYMBOL        EXIF
  B:00D0H.5       SYMBOL        F0
  B:00D0H.1       SYMBOL        FL
  N:0000H         SYMBOL        IBPSTACK
  N:0100H         SYMBOL        IBPSTACKTOP
  N:0100H         SYMBOL        IDATALEN
  C:664DH         SYMBOL        IDATALOOP
  D:00A8H         SYMBOL        IE
  B:0088H.1       SYMBOL        IE0
  B:0088H.3       SYMBOL        IE1
  B:00B0H.2       SYMBOL        INT0
  B:00B0H.3       SYMBOL        INT1
  B:0090H.4       SYMBOL        INT2
  B:0090H.5       SYMBOL        INT3
BL51 BANKED LINKER/LOCATER V6.22                                                      04/22/2016  18:21:44  PAGE 71


  B:0090H.6       SYMBOL        INT4
  B:0090H.7       SYMBOL        INT5
  D:00B8H         SYMBOL        IP
  B:0088H.0       SYMBOL        IT0
  B:0088H.2       SYMBOL        IT1
  B:00D0H.2       SYMBOL        OV
  B:00D0H.0       SYMBOL        P
  D:0080H         SYMBOL        P0
  D:0090H         SYMBOL        P1
  D:00A0H         SYMBOL        P2
  D:00B0H         SYMBOL        P3
  N:0000H         SYMBOL        PBPSTACK
  N:0000H         SYMBOL        PBPSTACKTOP
  D:0087H         SYMBOL        PCON
  N:0000H         SYMBOL        PDATALEN
  N:0000H         SYMBOL        PDATASTART
  B:00D8H.4       SYMBOL        PFI
  B:00D8H.6       SYMBOL        POR
  N:0000H         SYMBOL        PPAGE
  N:0000H         SYMBOL        PPAGEENABLE
  B:00B8H.4       SYMBOL        PS0
  B:00B8H.6       SYMBOL        PS1
  D:00D0H         SYMBOL        PSW
  B:00B8H.1       SYMBOL        PT0
  B:00B8H.3       SYMBOL        PT1
  B:00B8H.5       SYMBOL        PT2
  B:00F8H.4       SYMBOL        PWDI
  B:00B8H.0       SYMBOL        PX0
  B:00B8H.2       SYMBOL        PX1
  B:00F8H.0       SYMBOL        PX2
  B:00F8H.1       SYMBOL        PX3
  B:00F8H.2       SYMBOL        PX4
  B:00F8H.3       SYMBOL        PX5
  B:0098H.2       SYMBOL        RB8
  B:00C0H.2       SYMBOL        RB81
  D:00CBH         SYMBOL        RCAP2H
  D:00CAH         SYMBOL        RCAP2L
  B:00C8H.5       SYMBOL        RCLK
  B:00B0H.7       SYMBOL        RD
  B:0098H.4       SYMBOL        REN
  B:00C0H.4       SYMBOL        REN1
  B:0098H.0       SYMBOL        RI
  B:00C0H.0       SYMBOL        RI1
  B:00D0H.3       SYMBOL        RS0
  B:00D0H.4       SYMBOL        RS1
  B:00D8H.0       SYMBOL        RWT
  B:00B0H.0       SYMBOL        RXD0
  B:0090H.2       SYMBOL        RXD1
  D:00A9H         SYMBOL        SADDR0
  D:00AAH         SYMBOL        SADDR1
  D:00B9H         SYMBOL        SADEN0
  D:00BAH         SYMBOL        SADEN1
  D:0099H         SYMBOL        SBUF0
  D:00C1H         SYMBOL        SBUF1
  D:0098H         SYMBOL        SCON0
  D:00C0H         SYMBOL        SCON1
  B:0098H.7       SYMBOL        SM0
BL51 BANKED LINKER/LOCATER V6.22                                                      04/22/2016  18:21:44  PAGE 72


  B:00C0H.7       SYMBOL        SM01
  B:0098H.6       SYMBOL        SM1
  B:00C0H.6       SYMBOL        SM11
  B:0098H.5       SYMBOL        SM2
  B:00C0H.5       SYMBOL        SM21
  B:00D8H.7       SYMBOL        SMOD
  D:0081H         SYMBOL        SP
  C:664AH         SYMBOL        STARTUP1
  D:00C5H         SYMBOL        STATUS
  B:00B0H.4       SYMBOL        T0
  B:00B0H.5       SYMBOL        T1
  B:0090H.0       SYMBOL        T2
  D:00C8H         SYMBOL        T2CON
  B:0090H.1       SYMBOL        T2EX
  D:00C9H         SYMBOL        T2MOD
  D:00C7H         SYMBOL        TA
  B:0098H.3       SYMBOL        TB8
  B:00C0H.3       SYMBOL        TB81
  B:00C8H.4       SYMBOL        TCLK
  D:0088H         SYMBOL        TCON
  B:0088H.5       SYMBOL        TF0
  B:0088H.7       SYMBOL        TF1
  B:00C8H.7       SYMBOL        TF2
  D:008CH         SYMBOL        TH0
  D:008DH         SYMBOL        TH1
  D:00CDH         SYMBOL        TH2
  B:0098H.1       SYMBOL        TI
  B:00C0H.1       SYMBOL        TI1
  D:008AH         SYMBOL        TL0
  D:008BH         SYMBOL        TL1
  D:00CCH         SYMBOL        TL2
  D:0089H         SYMBOL        TMOD
  B:0088H.4       SYMBOL        TR0
  B:0088H.6       SYMBOL        TR1
  B:00C8H.2       SYMBOL        TR2
  B:00B0H.1       SYMBOL        TXD0
  B:0090H.3       SYMBOL        TXD1
  D:00D8H         SYMBOL        WDCON
  B:00D8H.3       SYMBOL        WDIF
  B:00D8H.2       SYMBOL        WDRF
  B:00B0H.6       SYMBOL        WR
  N:0000H         SYMBOL        XBPSTACK
  N:0000H         SYMBOL        XBPSTACKTOP
  N:0000H         SYMBOL        XDATALEN
  N:0000H         SYMBOL        XDATASTART
  C:0000H         LINE#         82
  C:664AH         LINE#         89
  C:664CH         LINE#         90
  C:664DH         LINE#         91
  C:664EH         LINE#         92
  C:6650H         LINE#         141
  C:6653H         LINE#         143
  C:6655H         LINE#         144
  C:6658H         LINE#         145
  C:665BH         LINE#         146
  C:665EH         LINE#         147
  C:6660H         LINE#         149
BL51 BANKED LINKER/LOCATER V6.22                                                      04/22/2016  18:21:44  PAGE 73


  C:6663H         LINE#         151
  C:6666H         LINE#         152
  C:6669H         LINE#         153
  C:666CH         LINE#         154
  C:666EH         LINE#         155
  C:6670H         LINE#         157
  C:6673H         LINE#         158
  C:6676H         LINE#         159
  C:6679H         LINE#         160
  C:667CH         LINE#         161
  C:667FH         LINE#         162
  C:6681H         LINE#         164
  C:6684H         LINE#         166
  -------         ENDMOD        ?C_STARTUP

  -------         MODULE        ?C?CLDPTR
  C:2204H         PUBLIC        ?C?CLDPTR
  -------         ENDMOD        ?C?CLDPTR

  -------         MODULE        ?C?CLDOPTR
  C:221DH         PUBLIC        ?C?CLDOPTR
  -------         ENDMOD        ?C?CLDOPTR

  -------         MODULE        ?C?CSTPTR
  C:224AH         PUBLIC        ?C?CSTPTR
  -------         ENDMOD        ?C?CSTPTR

  -------         MODULE        ?C?CSTOPTR
  C:225CH         PUBLIC        ?C?CSTOPTR
  -------         ENDMOD        ?C?CSTOPTR

  -------         MODULE        ?C?IMUL
  C:227EH         PUBLIC        ?C?IMUL
  -------         ENDMOD        ?C?IMUL

  -------         MODULE        ?C?UIDIV
  C:2290H         PUBLIC        ?C?UIDIV
  -------         ENDMOD        ?C?UIDIV

  -------         MODULE        ?C?SIDIV
  C:22E5H         PUBLIC        ?C?SIDIV
  -------         ENDMOD        ?C?SIDIV

  -------         MODULE        ?C?IILDX
  C:231BH         PUBLIC        ?C?IILDX
  -------         ENDMOD        ?C?IILDX

  -------         MODULE        ?C?ILDIX
  C:2331H         PUBLIC        ?C?ILDIX
  -------         ENDMOD        ?C?ILDIX

  -------         MODULE        ?C?ILDOPTR
  C:2347H         PUBLIC        ?C?ILDOPTR
  -------         ENDMOD        ?C?ILDOPTR

  -------         MODULE        ?C?ISTPTR
  C:237FH         PUBLIC        ?C?ISTPTR
BL51 BANKED LINKER/LOCATER V6.22                                                      04/22/2016  18:21:44  PAGE 74


  -------         ENDMOD        ?C?ISTPTR

  -------         MODULE        ?C?ISTOPTR
  C:239EH         PUBLIC        ?C?ISTOPTR
  -------         ENDMOD        ?C?ISTOPTR

  -------         MODULE        ?C?ULCMP
  C:23CBH         PUBLIC        ?C?ULCMP
  -------         ENDMOD        ?C?ULCMP

  -------         MODULE        ?C?LSHL
  C:23DCH         PUBLIC        ?C?LSHL
  -------         ENDMOD        ?C?LSHL

  -------         MODULE        ?C?LLDOPTR
  C:23EFH         PUBLIC        ?C?LLDOPTR
  -------         ENDMOD        ?C?LLDOPTR

  -------         MODULE        ?C?LSTXDATA
  C:241FH         PUBLIC        ?C?LSTXDATA
  -------         ENDMOD        ?C?LSTXDATA

  -------         MODULE        ?C?LSTKXDATA
  C:242BH         PUBLIC        ?C?LSTKXDATA
  -------         ENDMOD        ?C?LSTKXDATA

  -------         MODULE        ?C?OFFX256
  C:245CH         PUBLIC        ?C?OFFX256
  -------         ENDMOD        ?C?OFFX256

  -------         MODULE        ?C?OFFXADD
  C:246DH         PUBLIC        ?C?OFFXADD
  -------         ENDMOD        ?C?OFFXADD

  -------         MODULE        ?C?CCASE
  C:2479H         PUBLIC        ?C?CCASE
  -------         ENDMOD        ?C?CCASE

  -------         MODULE        ?C?ICALL
  C:249FH         PUBLIC        ?C?ICALL
  C:24A3H         PUBLIC        ?C?ICALL2
  -------         ENDMOD        ?C?ICALL

  -------         MODULE        PRINTF
  X:7B4BH         PUBLIC        ?_PRINTF517?BYTE
  X:7B4BH         PUBLIC        ?_PRINTF?BYTE
  X:7B4BH         PUBLIC        ?_SPRINTF517?BYTE
  X:7B4BH         PUBLIC        ?_SPRINTF?BYTE
  C:4824H         PUBLIC        _PRINTF
  C:4824H         PUBLIC        _PRINTF517
  C:481EH         PUBLIC        _SPRINTF
  C:481EH         PUBLIC        _SPRINTF517
  -------         ENDMOD        PRINTF

  -------         MODULE        TOINT
  C:6FEEH         PUBLIC        _TOINT
  -------         ENDMOD        TOINT
BL51 BANKED LINKER/LOCATER V6.22                                                      04/22/2016  18:21:44  PAGE 75



  -------         MODULE        ISXDIGIT
  C:703CH         PUBLIC        _isxdigit
  -------         ENDMOD        ISXDIGIT

  -------         MODULE        TOUPPER
  C:70D2H         PUBLIC        _toupper
  -------         ENDMOD        TOUPPER

  -------         MODULE        STRNCMP
  X:7B3FH         PUBLIC        ?_strncmp?BYTE
  C:6994H         PUBLIC        _strncmp
  -------         ENDMOD        STRNCMP

  -------         MODULE        STRNCPY
  X:7B29H         PUBLIC        ?_strncpy?BYTE
  C:6B77H         PUBLIC        _strncpy
  -------         ENDMOD        STRNCPY

  -------         MODULE        STRLEN
  C:70BDH         PUBLIC        _STRLEN
  -------         ENDMOD        STRLEN

  -------         MODULE        ?C?MEMSET
  C:24A5H         PUBLIC        ?C?MEMSET
  -------         ENDMOD        ?C?MEMSET

  -------         MODULE        ?C?MEMCMPAMD
  C:262FH         PUBLIC        ?C?MEMCMPAMD
  -------         ENDMOD        ?C?MEMCMPAMD

  -------         MODULE        ?C?COPYAMD
  C:270FH         PUBLIC        ?C?COPYAMD
  -------         ENDMOD        ?C?COPYAMD

  -------         MODULE        ?C?STRCMPAMD
  C:288BH         PUBLIC        ?C?STRCMPAMD
  -------         ENDMOD        ?C?STRCMPAMD

  -------         MODULE        ?C?LLDIDATA
  C:28A8H         PUBLIC        ?C?LLDIDATA
  -------         ENDMOD        ?C?LLDIDATA

  -------         MODULE        ?C?LLDXDATA
  C:28B4H         PUBLIC        ?C?LLDXDATA
  -------         ENDMOD        ?C?LLDXDATA

  -------         MODULE        ?C?LLDPDATA
  C:28C0H         PUBLIC        ?C?LLDPDATA
  -------         ENDMOD        ?C?LLDPDATA

  -------         MODULE        ?C?LLDCODE
  C:28CCH         PUBLIC        ?C?LLDCODE
  -------         ENDMOD        ?C?LLDCODE

  -------         MODULE        ?C?PLDIXDATA
  C:28DCH         PUBLIC        ?C?PLDIXDATA
BL51 BANKED LINKER/LOCATER V6.22                                                      04/22/2016  18:21:44  PAGE 76


  -------         ENDMOD        ?C?PLDIXDATA

  -------         MODULE        ?C?PSTXDATA
  C:28F3H         PUBLIC        ?C?PSTXDATA
  -------         ENDMOD        ?C?PSTXDATA

  -------         MODULE        PUTCHAR
  C:7015H         PUBLIC        _PUTCHAR
  -------         ENDMOD        PUTCHAR

Program Size: data=37.0 xdata=31676 code=28912
LINK/LOCATE RUN COMPLETE.  0 WARNING(S),  0 ERROR(S)
